

Microchip MPLAB XC8 Assembler V2.35 build 20211206165544 
                                                                                               Sun Feb 20 07:01:48 2022

Microchip MPLAB XC8 C Compiler v2.35 (Free license) build 20211206165544 Og9 
     1                           	processor	18F57K42
     2                           	fnconf	rparam,??,?,0
     3                           	pagewidth 120
     4                           	opt	flic
     5                           	psect	smallconst,global,reloc=2,class=SMALLCONST,delta=1,noexec
     6                           	psect	cinit,global,reloc=2,class=CODE,delta=1
     7                           	psect	bssCOMRAM,global,class=COMRAM,space=1,delta=1,lowdata,noexec
     8                           	psect	bssBANK0,global,class=BANK0,space=1,delta=1,lowdata,noexec
     9                           	psect	bssBANK1,global,class=BANK1,space=1,delta=1,lowdata,noexec
    10                           	psect	bssBANK2,global,class=BANK2,space=1,delta=1,lowdata,noexec
    11                           	psect	cstackBANK0,global,class=BANK0,space=1,delta=1,lowdata,noexec
    12                           	psect	cstackCOMRAM,global,class=COMRAM,space=1,delta=1,lowdata,noexec
    13                           	psect	text0,global,reloc=2,class=CODE,delta=1
    14                           	psect	text1,global,reloc=2,class=CODE,delta=1,group=3
    15                           	psect	text2,global,reloc=2,class=CODE,delta=1,group=1
    16                           	psect	text3,global,reloc=2,class=CODE,delta=1,group=1
    17                           	psect	text4,global,reloc=2,class=CODE,delta=1,group=1
    18                           	psect	text5,global,reloc=2,class=CODE,delta=1,group=1
    19                           	psect	text6,global,reloc=2,class=CODE,delta=1,group=3
    20                           	psect	text7,global,reloc=2,class=CODE,delta=1,group=2
    21                           	psect	text8,global,reloc=2,class=CODE,delta=1,group=2
    22                           	psect	text9,global,reloc=2,class=CODE,delta=1,group=3
    23                           	psect	text10,global,reloc=2,class=CODE,delta=1,group=3
    24                           	psect	text11,global,reloc=2,class=CODE,delta=1,group=3
    25                           	psect	text12,global,reloc=2,class=CODE,delta=1,group=2
    26                           	psect	text13,global,reloc=2,class=CODE,delta=1,group=3
    27                           	psect	text14,global,reloc=2,class=CODE,delta=1,group=3
    28                           	psect	text15,global,reloc=2,class=CODE,delta=1,group=3
    29                           	psect	text16,global,reloc=2,class=CODE,delta=1
    30                           	psect	text17,global,reloc=2,class=CODE,delta=1
    31                           	psect	text18,global,reloc=2,class=CODE,delta=1
    32                           	psect	text19,global,reloc=2,class=CODE,delta=1
    33                           	psect	text20,global,reloc=2,class=CODE,delta=1
    34                           	psect	text21,global,reloc=2,class=CODE,delta=1
    35                           	psect	text22,global,reloc=2,class=CODE,delta=1
    36                           	psect	text23,global,reloc=2,class=CODE,delta=1
    37                           	psect	text24,global,reloc=2,class=CODE,delta=1
    38                           	psect	text25,global,reloc=2,class=CODE,delta=1
    39                           	psect	text26,global,reloc=2,class=CODE,delta=1
    40                           	psect	text27,global,reloc=2,class=CODE,delta=1
    41                           	psect	text28,global,reloc=2,class=CODE,delta=1
    42                           	psect	text29,global,reloc=2,class=CODE,delta=1
    43                           	psect	text30,global,reloc=2,class=CODE,delta=1
    44                           	psect	text31,global,reloc=2,class=CODE,delta=1
    45                           	psect	text32,global,reloc=2,class=CODE,delta=1
    46                           	psect	text33,global,reloc=2,class=CODE,delta=1
    47                           	psect	text34,global,reloc=2,class=CODE,delta=1
    48                           	psect	text35,global,reloc=2,class=CODE,delta=1
    49                           	psect	text36,global,reloc=2,class=CODE,delta=1
    50                           	psect	text37,global,reloc=2,class=CODE,delta=1
    51                           	psect	text38,global,reloc=2,class=CODE,delta=1
    52                           	psect	text39,global,reloc=4,class=CODE,delta=1
    53                           	psect	text40,global,reloc=2,class=CODE,delta=1
    54                           	psect	text41,global,reloc=2,class=CODE,delta=1
    55                           	psect	text42,global,reloc=2,class=CODE,delta=1
    56                           	psect	text43,global,reloc=4,class=CODE,delta=1
    57                           	psect	text44,global,reloc=2,class=CODE,delta=1
    58                           	psect	text45,global,reloc=2,class=CODE,delta=1
    59                           	psect	text46,global,reloc=2,class=CODE,delta=1
    60                           	psect	text47,global,reloc=4,class=CODE,delta=1
    61                           	psect	text48,global,reloc=4,class=CODE,delta=1
    62                           	psect	text49,global,reloc=2,class=CODE,delta=1
    63                           	psect	text50,global,reloc=4,class=CODE,delta=1
    64                           	psect	text51,global,reloc=2,class=CODE,delta=1
    65                           	psect	text52,global,reloc=2,class=CODE,delta=1
    66                           	psect	text53,global,reloc=2,class=CODE,delta=1
    67                           	psect	text54,global,reloc=2,class=CODE,delta=1
    68                           	psect	text55,global,reloc=2,class=CODE,delta=1
    69                           	psect	text56,global,reloc=4,class=CODE,delta=1
    70                           	psect	text57,global,reloc=2,class=CODE,delta=1
    71                           	psect	text58,global,reloc=2,class=CODE,delta=1
    72                           	psect	text59,global,reloc=2,class=CODE,delta=1
    73                           	psect	ivt0x8,global,reloc=2,class=CODE,delta=1,noexec,keep,optim=
    74                           	psect	intsave_regs,global,class=BIGRAM,space=1,delta=1,noexec
    75                           	psect	text60,global,reloc=2,class=CODE,delta=1
    76                           	psect	rparam,global,class=COMRAM,space=1,delta=1,noexec
    77                           	psect	idloc,global,abs,ovrld,class=IDLOC,space=5,delta=1,noexec
    78                           	psect	config,global,abs,ovrld,class=CONFIG,space=4,delta=1,noexec
    79  0000                     
    80                           ; Version 2.40
    81                           ; Generated 17/11/2021 GMT
    82                           ; 
    83                           ; Copyright © 2021, Microchip Technology Inc. and its subsidiaries ("Microchip")
    84                           ; All rights reserved.
    85                           ; 
    86                           ; This software is developed by Microchip Technology Inc. and its subsidiaries ("Microch
      +                          ip").
    87                           ; 
    88                           ; Redistribution and use in source and binary forms, with or without modification, are
    89                           ; permitted provided that the following conditions are met:
    90                           ; 
    91                           ;     1. Redistributions of source code must retain the above copyright notice, this lis
      +                          t of
    92                           ;        conditions and the following disclaimer.
    93                           ; 
    94                           ;     2. Redistributions in binary form must reproduce the above copyright notice, this 
      +                          list
    95                           ;        of conditions and the following disclaimer in the documentation and/or other
    96                           ;        materials provided with the distribution. Publication is not required when
    97                           ;        this file is used in an embedded application.
    98                           ; 
    99                           ;     3. Microchip's name may not be used to endorse or promote products derived from th
      +                          is
   100                           ;        software without specific prior written permission.
   101                           ; 
   102                           ; THIS SOFTWARE IS PROVIDED BY MICROCHIP "AS IS" AND ANY EXPRESS OR IMPLIED WARRANTIES,
   103                           ; INCLUDING, BUT NOT LIMITED TO, THE IMPLIED WARRANTIES OF MERCHANTABILITY AND FITNESS F
      +                          OR
   104                           ; PURPOSE ARE DISCLAIMED.  IN NO EVENT SHALL MICROCHIP BE LIABLE FOR ANY DIRECT, INDIREC
      +                          T,
   105                           ; INCIDENTAL, SPECIAL, EXEMPLARY, OR CONSEQUENTIAL DAMAGES (INCLUDING BUT NOT LIMITED TO
   106                           ; PROCUREMENT OF SUBSTITUTE GOODS OR SERVICES; LOSS OF USE, DATA OR PROFITS; OR BUSINESS
   107                           ; INTERRUPTION) HOWSOEVER CAUSED AND ON ANY THEORY OF LIABILITY, WHETHER IN CONTRACT, ST
      +                          RICT
   108                           ; LIABILITY, OR TORT (INCLUDING NEGLIGENCE OR OTHERWISE) ARISING IN ANY WAY OUT OF THE U
      +                          SE OF
   109                           ; THIS SOFTWARE, EVEN IF ADVISED OF THE POSSIBILITY OF SUCH DAMAGE.
   110                           ; 
   111                           ; 
   112                           ; Code-generator required, PIC18F57K42 Definitions
   113                           ; 
   114                           ; SFR Addresses
   115  0000                     
   116                           	psect	smallconst
   117  002000                     __psmallconst:
   118                           	callstack 0
   119  002000  00                 	db	0
   120  002001  02                 	db	2
   121  002002  40                 	db	64
   122  002003  00                 	db	0
   123  002004  08                 	db	8
   124  002005  00                 	db	0
   125  002006                     __end_of_spi1_configuration:
   126                           	callstack 0
   127  0000                     _T5CON	set	16282
   128  0000                     _TMR5L	set	16280
   129  0000                     _TMR5H	set	16281
   130  0000                     _T5GCON	set	16283
   131  0000                     _IVTBASEL	set	16341
   132  0000                     _IVTBASEH	set	16342
   133  0000                     _IVTBASEU	set	16343
   134  0000                     _T6CON	set	16276
   135  0000                     _T6RST	set	16279
   136  0000                     _ADERRL	set	16098
   137  0000                     _ADERRH	set	16099
   138  0000                     _ADPREVL	set	16109
   139  0000                     _ADPREVH	set	16110
   140  0000                     _ADFLTRL	set	16102
   141  0000                     _ADFLTRH	set	16103
   142  0000                     _ADACCL	set	16104
   143  0000                     _ADACCH	set	16105
   144  0000                     _ADCNT	set	16107
   145  0000                     _ADRESL	set	16111
   146  0000                     _ADRESH	set	16112
   147  0000                     _ADCON0	set	16120
   148  0000                     _ADCON1	set	16121
   149  0000                     _ADPREH	set	16119
   150  0000                     _ADPREL	set	16118
   151  0000                     _ADCAP	set	16117
   152  0000                     _ADACQH	set	16116
   153  0000                     _ADPCH	set	16113
   154  0000                     _ADRPT	set	16108
   155  0000                     _ADACCU	set	16106
   156  0000                     _ADSTPTH	set	16101
   157  0000                     _ADSTPTL	set	16100
   158  0000                     _ADUTHH	set	16097
   159  0000                     _ADUTHL	set	16096
   160  0000                     _ADLTHH	set	16095
   161  0000                     _OSCTUNE	set	14814
   162  0000                     _OSCFRQ	set	14815
   163  0000                     _OSCEN	set	14813
   164  0000                     _TRISD	set	16325
   165  0000                     _TRISC	set	16324
   166  0000                     _TRISB	set	16323
   167  0000                     _LATC	set	16316
   168  0000                     _LATB	set	16315
   169  0000                     _PLLR	set	118496
   170  0000                     _U1ERRIRbits	set	15865
   171  0000                     _LATFbits	set	16319
   172  0000                     _LATDbits	set	16317
   173  0000                     _LATEbits	set	16318
   174  0000                     _TRISCbits	set	16324
   175  0000                     _T5CONbits	set	16282
   176  0000                     _IVTLOCKbits	set	16340
   177  0000                     _GIE	set	130711
   178  0000                     _IPR1bits	set	14721
   179  0000                     _IPR3bits	set	14723
   180  0000                     _PIE1bits	set	14737
   181  0000                     _PIR1bits	set	14753
   182  0000                     _PMD0	set	14784
   183  0000                     _OSCCON1	set	14809
   184  0000                     _RC3PPS	set	14867
   185  0000                     _ANSELA	set	14912
   186  0000                     _ANSELB	set	14928
   187  0000                     _ANSELC	set	14944
   188  0000                     _ANSELD	set	14960
   189  0000                     _LATA	set	16314
   190  0000                     _LATD	set	16317
   191  0000                     _LATE	set	16318
   192  0000                     _TRISA	set	16322
   193  0000                     _TRISE	set	16326
   194  0000                     _LATF	set	16319
   195  0000                     _INTCON0bits	set	16338
   196  0000                     _TRISF	set	16327
   197  0000                     _INLVLD	set	14964
   198  0000                     _SLRCOND	set	14963
   199  0000                     _ODCOND	set	14962
   200  0000                     _RD0I2C	set	14970
   201  0000                     _WPUD	set	14961
   202  0000                     _ANSELE	set	14976
   203  0000                     _INLVLC	set	14948
   204  0000                     _SLRCONC	set	14947
   205  0000                     _ODCONC	set	14946
   206  0000                     _RC3I2C	set	14954
   207  0000                     _WPUC	set	14945
   208  0000                     _INLVLB	set	14932
   209  0000                     _SLRCONB	set	14931
   210  0000                     _ODCONB	set	14930
   211  0000                     _RB1I2C	set	14938
   212  0000                     _WPUB	set	14929
   213  0000                     _INLVLE	set	14980
   214  0000                     _SLRCONE	set	14979
   215  0000                     _ODCONE	set	14978
   216  0000                     _WPUE	set	14977
   217  0000                     _ANSELF	set	14992
   218  0000                     _SPI1SCKPPS	set	15070
   219  0000                     _INLVLF	set	14996
   220  0000                     _SLRCONF	set	14995
   221  0000                     _ODCONF	set	14994
   222  0000                     _WPUF	set	14993
   223  0000                     _INLVLA	set	14916
   224  0000                     _SLRCONA	set	14915
   225  0000                     _ODCONA	set	14914
   226  0000                     _WPUA	set	14913
   227  0000                     _RB2I2C	set	14939
   228  0000                     _RC4I2C	set	14955
   229  0000                     _RD1I2C	set	14971
   230  0000                     _SPI1SDIPPS	set	15071
   231  0000                     _U1RXPPS	set	15077
   232  0000                     _RC5PPS	set	14869
   233  0000                     _RC6PPS	set	14870
   234  0000                     _SPI1RXB	set	15632
   235  0000                     _SPI1TXB	set	15633
   236  0000                     _SPI1TCNTL	set	15634
   237  0000                     _SPI1CON0	set	15636
   238  0000                     _U1RXB	set	15848
   239  0000                     _U1TXB	set	15850
   240  0000                     _U1P1L	set	15852
   241  0000                     _DAC1CON1	set	16028
   242  0000                     _DAC1CON0	set	16030
   243  0000                     _ADLTHL	set	16094
   244  0000                     _OSCCON3	set	14811
   245  0000                     _PMD7	set	14791
   246  0000                     _PMD6	set	14790
   247  0000                     _PMD5	set	14789
   248  0000                     _PMD4	set	14788
   249  0000                     _PMD3	set	14787
   250  0000                     _PMD2	set	14786
   251  0000                     _PMD1	set	14785
   252  0000                     _ADACQL	set	16115
   253  0000                     _T6TMR	set	16274
   254  0000                     _T6PR	set	16275
   255  0000                     _T6HLT	set	16277
   256  0000                     _T6CLKCON	set	16278
   257  0000                     _ADCLK	set	16127
   258  0000                     _ADACT	set	16126
   259  0000                     _ADREF	set	16125
   260  0000                     _ADSTAT	set	16124
   261  0000                     _ADCON3	set	16123
   262  0000                     _ADCON2	set	16122
   263  0000                     _PIR2bits	set	14754
   264  0000                     _PIR8bits	set	14760
   265  0000                     _PIR9bits	set	14761
   266  0000                     _PIE3bits	set	14739
   267  0000                     _PIE9bits	set	14745
   268  0000                     _IVTLOCK	set	16340
   269  0000                     _IPR8bits	set	14728
   270  0000                     _IPR9bits	set	14729
   271  0000                     _PIE8bits	set	14744
   272  0000                     _U1ERRIE	set	15866
   273  0000                     _U1ERRIR	set	15865
   274  0000                     _U1UIR	set	15864
   275  0000                     _U1FIFO	set	15863
   276  0000                     _U1BRGH	set	15862
   277  0000                     _U1BRGL	set	15861
   278  0000                     _U1CON2	set	15860
   279  0000                     _U1CON1	set	15859
   280  0000                     _U1CON0	set	15858
   281  0000                     _U1P3H	set	15857
   282  0000                     _U1P3L	set	15856
   283  0000                     _U1P2H	set	15855
   284  0000                     _U1P2L	set	15854
   285  0000                     _U1P1H	set	15853
   286  0000                     _T5CLK	set	16285
   287  0000                     _T5GATE	set	16284
   288  0000                     _SPI1BAUD	set	15641
   289  0000                     _SPI1CLK	set	15644
   290  0000                     _SPI1CON2	set	15638
   291  0000                     _SPI1CON1	set	15637
   292  002006                     STR_1:
   293                           
   294                           ; BSR set to: 0
   295  002006  50                 	db	80	;'P'
   296  002007  53                 	db	83	;'S'
   297  002008  3A                 	db	58	;':'
   298  002009  20                 	db	32
   299  00200A  56                 	db	86	;'V'
   300  00200B  3D                 	db	61	;'='
   301  00200C  25                 	db	37
   302  00200D  34                 	db	52	;'4'
   303  00200E  75                 	db	117	;'u'
   304  00200F  20                 	db	32
   305  002010  49                 	db	73	;'I'
   306  002011  3D                 	db	61	;'='
   307  002012  25                 	db	37
   308  002013  34                 	db	52	;'4'
   309  002014  75                 	db	117	;'u'
   310  002015  20                 	db	32
   311  002016  0D                 	db	13
   312  002017  0A                 	db	10
   313  002018  00                 	db	0
   314  002019  00                 	db	0	; dummy byte at the end
   315  0000                     
   316                           ; #config settings
   317                           
   318                           	psect	cinit
   319  002D6A                     __pcinit:
   320                           	callstack 0
   321  002D6A                     start_initialization:
   322                           	callstack 0
   323  002D6A                     __initialization:
   324                           	callstack 0
   325                           
   326                           ; Clear objects allocated to BANK2 (128 bytes)
   327  002D6A  EE00  F200         	lfsr	0,__pbssBANK2
   328  002D6E  0E80               	movlw	128
   329  002D70                     clear_0:
   330  002D70  6AEE               	clrf	postinc0,c
   331  002D72  06E8               	decf	wreg,f,c
   332  002D74  E1FD               	bnz	clear_0
   333                           
   334                           ; Clear objects allocated to BANK1 (192 bytes)
   335  002D76  EE00  F100         	lfsr	0,__pbssBANK1
   336  002D7A  0EC0               	movlw	192
   337  002D7C                     clear_1:
   338  002D7C  6AEE               	clrf	postinc0,c
   339  002D7E  06E8               	decf	wreg,f,c
   340  002D80  E1FD               	bnz	clear_1
   341                           
   342                           ; Clear objects allocated to BANK0 (74 bytes)
   343  002D82  EE00  F060         	lfsr	0,__pbssBANK0
   344  002D86  0E4A               	movlw	74
   345  002D88                     clear_2:
   346  002D88  6AEE               	clrf	postinc0,c
   347  002D8A  06E8               	decf	wreg,f,c
   348  002D8C  E1FD               	bnz	clear_2
   349                           
   350                           ; Clear objects allocated to COMRAM (20 bytes)
   351  002D8E  EE00  F038         	lfsr	0,__pbssCOMRAM
   352  002D92  0E14               	movlw	20
   353  002D94                     clear_3:
   354  002D94  6AEE               	clrf	postinc0,c
   355  002D96  06E8               	decf	wreg,f,c
   356  002D98  E1FD               	bnz	clear_3
   357                           
   358                           ;
   359                           ; Setup IVTBASE
   360                           ;
   361  002D9A  0E08               	movlw	(ivt0x8_base shr 0)& (0+255)
   362  002D9C  6ED5               	movwf	213,c
   363  002D9E  0E00               	movlw	(ivt0x8_base shr (0+8))& (0+255)
   364  002DA0  6ED6               	movwf	214,c
   365  002DA2  0E00               	movlw	(ivt0x8_base shr (0+16))& (0+255)
   366  002DA4  6ED7               	movwf	215,c
   367  002DA6                     end_of_initialization:
   368                           	callstack 0
   369  002DA6                     __end_of__initialization:
   370                           	callstack 0
   371  002DA6  0100               	movlb	0
   372  002DA8  EF70  F012         	goto	_main	;jump to C main() function
   373                           
   374                           	psect	bssCOMRAM
   375  000038                     __pbssCOMRAM:
   376                           	callstack 0
   377  000038                     _ana:
   378                           	callstack 0
   379  000038                     	ds	4
   380  00003C                     _width:
   381                           	callstack 0
   382  00003C                     	ds	2
   383  00003E                     _prec:
   384                           	callstack 0
   385  00003E                     	ds	2
   386  000040                     _flags:
   387                           	callstack 0
   388  000040                     	ds	2
   389  000042                     _adc_chan:
   390                           	callstack 0
   391  000042                     	ds	1
   392  000043                     _adc_tick:
   393                           	callstack 0
   394  000043                     	ds	1
   395  000044                     _disp_tick:
   396                           	callstack 0
   397  000044                     	ds	1
   398  000045                     _uart1RxLastError:
   399                           	callstack 0
   400  000045                     	ds	1
   401  000046                     _uart1RxCount:
   402                           	callstack 0
   403  000046                     	ds	1
   404  000047                     _uart1RxTail:
   405                           	callstack 0
   406  000047                     	ds	1
   407  000048                     _uart1RxHead:
   408                           	callstack 0
   409  000048                     	ds	1
   410  000049                     _uart1TxBufferRemaining:
   411                           	callstack 0
   412  000049                     	ds	1
   413  00004A                     _uart1TxTail:
   414                           	callstack 0
   415  00004A                     	ds	1
   416  00004B                     _uart1TxHead:
   417                           	callstack 0
   418  00004B                     	ds	1
   419                           
   420                           	psect	bssBANK0
   421  000060                     __pbssBANK0:
   422                           	callstack 0
   423  000060                     _tickCount:
   424                           	callstack 0
   425  000060                     	ds	12
   426  00006C                     _TMR5_InterruptHandler:
   427                           	callstack 0
   428  00006C                     	ds	3
   429  00006F                     _UART1_ErrorHandler:
   430                           	callstack 0
   431  00006F                     	ds	3
   432  000072                     _UART1_OverrunErrorHandler:
   433                           	callstack 0
   434  000072                     	ds	3
   435  000075                     _UART1_FramingErrorHandler:
   436                           	callstack 0
   437  000075                     	ds	3
   438  000078                     _TMR6_InterruptHandler:
   439                           	callstack 0
   440  000078                     	ds	3
   441  00007B                     _ADCC_ADI_InterruptHandler:
   442                           	callstack 0
   443  00007B                     	ds	3
   444  00007E                     _UART1_TxInterruptHandler:
   445                           	callstack 0
   446  00007E                     	ds	3
   447  000081                     _UART1_RxInterruptHandler:
   448                           	callstack 0
   449  000081                     	ds	3
   450  000084                     _nout:
   451                           	callstack 0
   452  000084                     	ds	2
   453  000086                     _timer5ReloadVal:
   454                           	callstack 0
   455  000086                     	ds	2
   456  000088                     TMR6_ISR@CountCallBack:
   457                           	callstack 0
   458  000088                     	ds	2
   459  00008A                     _dbuf:
   460                           	callstack 0
   461  00008A                     	ds	32
   462                           
   463                           	psect	bssBANK1
   464  000100                     __pbssBANK1:
   465                           	callstack 0
   466  000100                     _uart1RxStatusBuffer:
   467                           	callstack 0
   468  000100                     	ds	64
   469  000140                     _uart1RxBuffer:
   470                           	callstack 0
   471  000140                     	ds	64
   472  000180                     _uart1TxBuffer:
   473                           	callstack 0
   474  000180                     	ds	64
   475                           
   476                           	psect	bssBANK2
   477  000200                     __pbssBANK2:
   478                           	callstack 0
   479  000200                     _buff1:
   480                           	callstack 0
   481  000200                     	ds	128
   482                           
   483                           	psect	cstackBANK0
   484  0000AA                     __pcstackBANK0:
   485                           	callstack 0
   486  0000AA                     ?_utoa:
   487                           	callstack 0
   488  0000AA                     utoa@fp:
   489                           	callstack 0
   490                           
   491                           ; 1 bytes @ 0x0
   492  0000AA                     	ds	1
   493  0000AB                     utoa@d:
   494                           	callstack 0
   495                           
   496                           ; 8 bytes @ 0x1
   497  0000AB                     	ds	8
   498  0000B3                     utoa@p:
   499                           	callstack 0
   500                           
   501                           ; 2 bytes @ 0x9
   502  0000B3                     	ds	2
   503  0000B5                     utoa@w:
   504                           	callstack 0
   505                           
   506                           ; 2 bytes @ 0xB
   507  0000B5                     	ds	2
   508  0000B7                     utoa@n:
   509                           	callstack 0
   510                           
   511                           ; 8 bytes @ 0xD
   512  0000B7                     	ds	8
   513  0000BF                     utoa@i:
   514                           	callstack 0
   515                           
   516                           ; 2 bytes @ 0x15
   517  0000BF                     	ds	2
   518  0000C1                     ?_vfpfcnvrt:
   519                           	callstack 0
   520  0000C1                     vfpfcnvrt@fp:
   521                           	callstack 0
   522                           
   523                           ; 1 bytes @ 0x17
   524  0000C1                     	ds	1
   525  0000C2                     vfpfcnvrt@fmt:
   526                           	callstack 0
   527                           
   528                           ; 1 bytes @ 0x18
   529  0000C2                     	ds	1
   530  0000C3                     vfpfcnvrt@ap:
   531                           	callstack 0
   532                           
   533                           ; 1 bytes @ 0x19
   534  0000C3                     	ds	1
   535  0000C4                     ??_vfpfcnvrt:
   536                           
   537                           ; 1 bytes @ 0x1A
   538  0000C4                     	ds	4
   539  0000C8                     vfpfcnvrt@llu:
   540                           	callstack 0
   541                           
   542                           ; 8 bytes @ 0x1E
   543  0000C8                     	ds	8
   544  0000D0                     ?_vfprintf:
   545                           	callstack 0
   546  0000D0                     vfprintf@fp:
   547                           	callstack 0
   548                           
   549                           ; 1 bytes @ 0x26
   550  0000D0                     	ds	1
   551  0000D1                     vfprintf@fmt:
   552                           	callstack 0
   553                           
   554                           ; 1 bytes @ 0x27
   555  0000D1                     	ds	1
   556  0000D2                     vfprintf@ap:
   557                           	callstack 0
   558                           
   559                           ; 1 bytes @ 0x28
   560  0000D2                     	ds	1
   561  0000D3                     vfprintf@cfmt:
   562                           	callstack 0
   563                           
   564                           ; 1 bytes @ 0x29
   565  0000D3                     	ds	1
   566  0000D4                     ?_sprintf:
   567                           	callstack 0
   568  0000D4                     sprintf@s:
   569                           	callstack 0
   570                           
   571                           ; 2 bytes @ 0x2A
   572  0000D4                     	ds	2
   573  0000D6                     sprintf@fmt:
   574                           	callstack 0
   575                           
   576                           ; 1 bytes @ 0x2C
   577  0000D6                     	ds	5
   578  0000DB                     sprintf@ap:
   579                           	callstack 0
   580                           
   581                           ; 1 bytes @ 0x31
   582  0000DB                     	ds	1
   583  0000DC                     sprintf@f:
   584                           	callstack 0
   585                           
   586                           ; 11 bytes @ 0x32
   587  0000DC                     	ds	11
   588  0000E7                     main@dac_v:
   589                           	callstack 0
   590                           
   591                           ; 1 bytes @ 0x3D
   592  0000E7                     	ds	1
   593                           
   594                           	psect	cstackCOMRAM
   595  000001                     __pcstackCOMRAM:
   596                           	callstack 0
   597  000001                     ?_ADCC_GetConversionResult:
   598                           	callstack 0
   599                           
   600                           ; 2 bytes @ 0x0
   601  000001                     	ds	2
   602  000003                     ??_ADCC_GetConversionResult:
   603                           
   604                           ; 1 bytes @ 0x2
   605  000003                     	ds	2
   606  000005                     ??_Adc_Isr:
   607                           
   608                           ; 1 bytes @ 0x4
   609  000005                     	ds	1
   610  000006                     ??_ADCC_ISR:
   611                           
   612                           ; 1 bytes @ 0x5
   613  000006                     	ds	2
   614  000008                     ??_Led_Blink:
   615                           
   616                           ; 1 bytes @ 0x7
   617  000008                     	ds	1
   618  000009                     ??_TMR6_ISR:
   619                           
   620                           ; 1 bytes @ 0x8
   621  000009                     	ds	2
   622  00000B                     ??_UART1_tx_vect_isr:
   623                           
   624                           ; 1 bytes @ 0xA
   625  00000B                     	ds	2
   626  00000D                     ??_UART1_rx_vect_isr:
   627                           
   628                           ; 1 bytes @ 0xC
   629  00000D                     	ds	2
   630  00000F                     TMR5_WriteTimer@timerVal:
   631                           	callstack 0
   632                           
   633                           ; 2 bytes @ 0xE
   634  00000F                     	ds	2
   635  000011                     Timers_Isr@i:
   636                           	callstack 0
   637                           
   638                           ; 2 bytes @ 0x10
   639  000011                     	ds	2
   640  000013                     ??_TMR5_ISR:
   641                           
   642                           ; 1 bytes @ 0x12
   643  000013                     	ds	2
   644  000015                     ??_display_led:
   645  000015                     ?_strlen:
   646                           	callstack 0
   647  000015                     ?_isdigit:
   648                           	callstack 0
   649  000015                     ?_isspace:
   650                           	callstack 0
   651  000015                     ?___wmul:
   652                           	callstack 0
   653  000015                     ?___lodiv:
   654                           	callstack 0
   655  000015                     ?___lomod:
   656                           	callstack 0
   657  000015                     DAC1_SetOutput@inputData:
   658                           	callstack 0
   659  000015                     INTERRUPT_Initialize@state:
   660                           	callstack 0
   661  000015                     UART1_Write@txData:
   662                           	callstack 0
   663  000015                     strlen@s:
   664                           	callstack 0
   665  000015                     ___wmul@multiplier:
   666                           	callstack 0
   667  000015                     isdigit@c:
   668                           	callstack 0
   669  000015                     isspace@c:
   670                           	callstack 0
   671  000015                     ADCC_SetADIInterruptHandler@InterruptHandler:
   672                           	callstack 0
   673  000015                     TMR6_SetInterruptHandler@InterruptHandler:
   674                           	callstack 0
   675  000015                     UART1_SetFramingErrorHandler@interruptHandler:
   676                           	callstack 0
   677  000015                     UART1_SetOverrunErrorHandler@interruptHandler:
   678                           	callstack 0
   679  000015                     UART1_SetErrorHandler@interruptHandler:
   680                           	callstack 0
   681  000015                     UART1_SetRxInterruptHandler@InterruptHandler:
   682                           	callstack 0
   683  000015                     UART1_SetTxInterruptHandler@InterruptHandler:
   684                           	callstack 0
   685  000015                     TMR5_SetInterruptHandler@InterruptHandler:
   686                           	callstack 0
   687  000015                     ___lodiv@dividend:
   688                           	callstack 0
   689  000015                     ___lomod@dividend:
   690                           	callstack 0
   691                           
   692                           ; 8 bytes @ 0x14
   693  000015                     	ds	1
   694  000016                     putch@txData:
   695                           	callstack 0
   696                           
   697                           ; 1 bytes @ 0x15
   698  000016                     	ds	1
   699  000017                     ??_isdigit:
   700  000017                     ??_isspace:
   701  000017                     ?_fputc:
   702                           	callstack 0
   703  000017                     display_led@led:
   704                           	callstack 0
   705  000017                     strlen@a:
   706                           	callstack 0
   707  000017                     ___wmul@multiplicand:
   708                           	callstack 0
   709  000017                     fputc@c:
   710                           	callstack 0
   711                           
   712                           ; 2 bytes @ 0x16
   713  000017                     	ds	1
   714  000018                     ??_TMR5_Initialize:
   715  000018                     
   716                           ; 1 bytes @ 0x17
   717  000018                     	ds	1
   718  000019                     ___wmul@product:
   719                           	callstack 0
   720  000019                     fputc@fp:
   721                           	callstack 0
   722                           
   723                           ; 2 bytes @ 0x18
   724  000019                     	ds	1
   725  00001A                     
   726                           ; 1 bytes @ 0x19
   727  00001A                     	ds	1
   728  00001B                     ??_fputc:
   729  00001B                     _isspace$2467:
   730                           	callstack 0
   731                           
   732                           ; 1 bytes @ 0x1A
   733  00001B                     	ds	1
   734  00001C                     ?_atoi:
   735                           	callstack 0
   736  00001C                     atoi@s:
   737                           	callstack 0
   738                           
   739                           ; 1 bytes @ 0x1B
   740  00001C                     	ds	1
   741  00001D                     ___lodiv@divisor:
   742                           	callstack 0
   743  00001D                     ___lomod@divisor:
   744                           	callstack 0
   745                           
   746                           ; 8 bytes @ 0x1C
   747  00001D                     	ds	1
   748  00001E                     ??_atoi:
   749                           
   750                           ; 1 bytes @ 0x1D
   751  00001E                     	ds	2
   752  000020                     ?_fputs:
   753                           	callstack 0
   754  000020                     fputs@s:
   755                           	callstack 0
   756                           
   757                           ; 2 bytes @ 0x1F
   758  000020                     	ds	2
   759  000022                     atoi@neg:
   760                           	callstack 0
   761  000022                     fputs@fp:
   762                           	callstack 0
   763                           
   764                           ; 2 bytes @ 0x21
   765  000022                     	ds	2
   766  000024                     fputs@c:
   767                           	callstack 0
   768  000024                     atoi@n:
   769                           	callstack 0
   770                           
   771                           ; 2 bytes @ 0x23
   772  000024                     	ds	1
   773  000025                     ___lomod@counter:
   774                           	callstack 0
   775  000025                     fputs@i:
   776                           	callstack 0
   777  000025                     ___lodiv@quotient:
   778                           	callstack 0
   779                           
   780                           ; 8 bytes @ 0x24
   781  000025                     	ds	2
   782  000027                     ?_pad:
   783                           	callstack 0
   784  000027                     pad@fp:
   785                           	callstack 0
   786  000027                     puts@s:
   787                           	callstack 0
   788                           
   789                           ; 2 bytes @ 0x26
   790  000027                     	ds	1
   791  000028                     pad@buf:
   792                           	callstack 0
   793                           
   794                           ; 1 bytes @ 0x27
   795  000028                     	ds	1
   796  000029                     _puts$2522:
   797                           	callstack 0
   798  000029                     pad@p:
   799                           	callstack 0
   800                           
   801                           ; 2 bytes @ 0x28
   802  000029                     	ds	2
   803  00002B                     ??_pad:
   804                           
   805                           ; 1 bytes @ 0x2A
   806  00002B                     	ds	1
   807  00002C                     pad@i:
   808                           	callstack 0
   809                           
   810                           ; 2 bytes @ 0x2B
   811  00002C                     	ds	1
   812  00002D                     ___lodiv@counter:
   813                           	callstack 0
   814                           
   815                           ; 1 bytes @ 0x2C
   816  00002D                     	ds	1
   817  00002E                     pad@w:
   818                           	callstack 0
   819                           
   820                           ; 2 bytes @ 0x2D
   821  00002E                     	ds	2
   822  000030                     ??_utoa:
   823                           
   824                           ; 1 bytes @ 0x2F
   825  000030                     	ds	8
   826  000038                     
   827                           ; 1 bytes @ 0x37
   828 ;;
   829 ;;Main: autosize = 0, tempsize = 0, incstack = 0, save=0
   830 ;;
   831 ;; *************** function _main *****************
   832 ;; Defined at:
   833 ;;		line 94 in file "main.c"
   834 ;; Parameters:    Size  Location     Type
   835 ;;		None
   836 ;; Auto vars:     Size  Location     Type
   837 ;;  dac_v           1   61[BANK0 ] unsigned char 
   838 ;; Return value:  Size  Location     Type
   839 ;;                  1    wreg      void 
   840 ;; Registers used:
   841 ;;		wreg, fsr1l, fsr1h, fsr2l, fsr2h, status,2, status,0, tblptrl, tblptrh, tblptru, prodl, prodh, cstack
   842 ;; Tracked objects:
   843 ;;		On entry : 0/0
   844 ;;		On exit  : 0/0
   845 ;;		Unchanged: 0/0
   846 ;; Data sizes:     COMRAM   BANK0   BANK1   BANK2   BANK3   BANK4   BANK5   BANK6   BANK7   BANK8   BANK9  BANK10  BANK1
      +1  BANK12  BANK13  BANK14  BANK15  BANK16  BANK17  BANK18  BANK19  BANK20  BANK21  BANK22  BANK23  BANK24  BANK25  BANK2
      +6  BANK27  BANK28  BANK29  BANK30  BANK31
   847 ;;      Params:         0       0       0       0       0       0       0       0       0       0       0       0       
      +0       0       0       0       0       0       0       0       0       0       0       0       0       0       0       
      +0       0       0       0       0       0
   848 ;;      Locals:         0       1       0       0       0       0       0       0       0       0       0       0       
      +0       0       0       0       0       0       0       0       0       0       0       0       0       0       0       
      +0       0       0       0       0       0
   849 ;;      Temps:          0       0       0       0       0       0       0       0       0       0       0       0       
      +0       0       0       0       0       0       0       0       0       0       0       0       0       0       0       
      +0       0       0       0       0       0
   850 ;;      Totals:         0       1       0       0       0       0       0       0       0       0       0       0       
      +0       0       0       0       0       0       0       0       0       0       0       0       0       0       0       
      +0       0       0       0       0       0
   851 ;;Total ram usage:        1 bytes
   852 ;; Hardware stack levels required when called: 13
   853 ;; This function calls:
   854 ;;		_ADCC_SetADIInterruptHandler
   855 ;;		_DAC1_SetOutput
   856 ;;		_SYSTEM_Initialize
   857 ;;		_TMR5_SetInterruptHandler
   858 ;;		_TMR6_SetInterruptHandler
   859 ;;		_display_led
   860 ;;		_puts
   861 ;;		_sprintf
   862 ;; This function is called by:
   863 ;;		Startup code after reset
   864 ;; This function uses a non-reentrant model
   865 ;;
   866                           
   867                           	psect	text0
   868  0024E0                     __ptext0:
   869                           	callstack 0
   870  0024E0                     _main:
   871                           	callstack 18
   872                           
   873                           ;main.c: 96:  uint8_t dac_v = 1;
   874                           
   875                           ;incstack = 0
   876  0024E0  0E01               	movlw	1
   877  0024E2  0100               	movlb	0	; () banked
   878  0024E4  6FE7               	movwf	main@dac_v& (0+255),b
   879                           
   880                           ; BSR set to: 0
   881                           ;main.c: 98:  SYSTEM_Initialize();
   882  0024E6  EC66  F018         	call	_SYSTEM_Initialize	;wreg free
   883                           
   884                           ; BSR set to: 61
   885  0024EA  92BD               	bcf	189,1,c	;volatile
   886                           
   887                           ; BSR set to: 61
   888  0024EC  94BE               	bcf	190,2,c	;volatile
   889                           
   890                           ; BSR set to: 61
   891                           ;main.c: 102:  TMR6_SetInterruptHandler(Led_Blink);
   892  0024EE  0EA2               	movlw	low _Led_Blink
   893  0024F0  6E15               	movwf	TMR6_SetInterruptHandler@InterruptHandler^0,c
   894  0024F2  0E31               	movlw	high _Led_Blink
   895  0024F4  6E16               	movwf	(TMR6_SetInterruptHandler@InterruptHandler+1)^0,c
   896  0024F6  0E00               	movlw	low (_Led_Blink shr (0+16))
   897  0024F8  6E17               	movwf	(TMR6_SetInterruptHandler@InterruptHandler+2)^0,c
   898  0024FA  EC29  F019         	call	_TMR6_SetInterruptHandler	;wreg free
   899                           
   900                           ;main.c: 103:  TMR5_SetInterruptHandler(Timers_Isr);
   901  0024FE  0EE0               	movlw	low _Timers_Isr
   902  002500  6E15               	movwf	TMR5_SetInterruptHandler@InterruptHandler^0,c
   903  002502  0E2C               	movlw	high _Timers_Isr
   904  002504  6E16               	movwf	(TMR5_SetInterruptHandler@InterruptHandler+1)^0,c
   905  002506  0E00               	movlw	low (_Timers_Isr shr (0+16))
   906  002508  6E17               	movwf	(TMR5_SetInterruptHandler@InterruptHandler+2)^0,c
   907  00250A  EC30  F019         	call	_TMR5_SetInterruptHandler	;wreg free
   908                           
   909                           ;main.c: 104:  ADCC_SetADIInterruptHandler(Adc_Isr);
   910  00250E  0EE0               	movlw	low _Adc_Isr
   911  002510  6E15               	movwf	ADCC_SetADIInterruptHandler@InterruptHandler^0,c
   912  002512  0E2F               	movlw	high _Adc_Isr
   913  002514  6E16               	movwf	(ADCC_SetADIInterruptHandler@InterruptHandler+1)^0,c
   914  002516  0E00               	movlw	low (_Adc_Isr shr (0+16))
   915  002518  6E17               	movwf	(ADCC_SetADIInterruptHandler@InterruptHandler+2)^0,c
   916  00251A  EC37  F019         	call	_ADCC_SetADIInterruptHandler	;wreg free
   917                           
   918                           ;main.c: 105:  ADPCH = adc_chan;
   919  00251E  0060  F10B  FEF1   	movff	_adc_chan,16113	;volatile
   920                           
   921                           ;main.c: 108:  (INTCON0bits.GIEH = 1);
   922  002524  8ED2               	bsf	210,7,c	;volatile
   923                           
   924                           ;main.c: 113:  DAC1_SetOutput(dac_v);
   925  002526  0E01               	movlw	1
   926  002528  EC49  F019         	call	_DAC1_SetOutput
   927  00252C                     l3651:
   928                           
   929                           ;main.c: 116:   if (adc_tick) {
   930  00252C  5043               	movf	_adc_tick^0,w,c	;volatile
   931  00252E  B4D8               	btfsc	status,2,c
   932  002530  D7FD               	goto	l3651
   933                           
   934                           ;main.c: 117:    if (ana[0] < 900) {
   935  002532  0E84               	movlw	132
   936  002534  5C38               	subwf	_ana^0,w,c	;volatile
   937  002536  0E03               	movlw	3
   938  002538  5839               	subwfb	(_ana+1)^0,w,c	;volatile
   939  00253A  B0D8               	btfsc	status,0,c
   940  00253C  D007               	goto	l3657
   941                           
   942                           ;main.c: 118:     display_led(oo00_off);
   943  00253E  0E00               	movlw	0
   944  002540  ECC7  F013         	call	_display_led
   945                           
   946                           ;main.c: 119:     display_led(oo30_off);
   947  002544  0E09               	movlw	9
   948  002546  ECC7  F013         	call	_display_led
   949                           
   950                           ;main.c: 120:    } else {
   951  00254A  D013               	goto	l3663
   952  00254C                     l3657:
   953                           
   954                           ;main.c: 121:     if (ana[0] > 2500) {
   955  00254C  0EC5               	movlw	197
   956  00254E  5C38               	subwf	_ana^0,w,c	;volatile
   957  002550  0E09               	movlw	9
   958  002552  5839               	subwfb	(_ana+1)^0,w,c	;volatile
   959  002554  A0D8               	btfss	status,0,c
   960  002556  D007               	goto	l3661
   961                           
   962                           ;main.c: 122:      display_led(oo00_g);
   963  002558  0E01               	movlw	1
   964  00255A  ECC7  F013         	call	_display_led
   965                           
   966                           ;main.c: 123:      display_led(oo30_g);
   967  00255E  0E0A               	movlw	10
   968  002560  ECC7  F013         	call	_display_led
   969                           
   970                           ;main.c: 124:     } else {
   971  002564  D006               	goto	l3663
   972  002566                     l3661:
   973                           
   974                           ;main.c: 125:      display_led(oo00_r);
   975  002566  0E02               	movlw	2
   976  002568  ECC7  F013         	call	_display_led
   977                           
   978                           ;main.c: 126:      display_led(oo30_r);
   979  00256C  0E0B               	movlw	11
   980  00256E  ECC7  F013         	call	_display_led
   981  002572                     l3663:
   982                           
   983                           ;main.c: 130:    if (ana[1] < 900) {
   984  002572  0E84               	movlw	132
   985  002574  5C3A               	subwf	(_ana+2)^0,w,c	;volatile
   986  002576  0E03               	movlw	3
   987  002578  583B               	subwfb	(_ana+3)^0,w,c	;volatile
   988  00257A  B0D8               	btfsc	status,0,c
   989  00257C  D007               	goto	l3667
   990                           
   991                           ;main.c: 131:     display_led(oo10_off);
   992  00257E  0E03               	movlw	3
   993  002580  ECC7  F013         	call	_display_led
   994                           
   995                           ;main.c: 132:     display_led(oo20_off);
   996  002584  0E06               	movlw	6
   997  002586  ECC7  F013         	call	_display_led
   998                           
   999                           ;main.c: 133:    } else {
  1000  00258A  D013               	goto	l3673
  1001  00258C                     l3667:
  1002                           
  1003                           ;main.c: 134:     if (ana[1] > 2500) {
  1004  00258C  0EC5               	movlw	197
  1005  00258E  5C3A               	subwf	(_ana+2)^0,w,c	;volatile
  1006  002590  0E09               	movlw	9
  1007  002592  583B               	subwfb	(_ana+3)^0,w,c	;volatile
  1008  002594  A0D8               	btfss	status,0,c
  1009  002596  D007               	goto	l3671
  1010                           
  1011                           ;main.c: 135:      display_led(oo10_g);
  1012  002598  0E04               	movlw	4
  1013  00259A  ECC7  F013         	call	_display_led
  1014                           
  1015                           ;main.c: 136:      display_led(oo20_g);
  1016  00259E  0E07               	movlw	7
  1017  0025A0  ECC7  F013         	call	_display_led
  1018                           
  1019                           ;main.c: 137:     } else {
  1020  0025A4  D006               	goto	l3673
  1021  0025A6                     l3671:
  1022                           
  1023                           ;main.c: 138:      display_led(oo10_r);
  1024  0025A6  0E05               	movlw	5
  1025  0025A8  ECC7  F013         	call	_display_led
  1026                           
  1027                           ;main.c: 139:      display_led(oo20_r);
  1028  0025AC  0E08               	movlw	8
  1029  0025AE  ECC7  F013         	call	_display_led
  1030  0025B2                     l3673:
  1031                           
  1032                           ;main.c: 142:    adc_tick = 0;
  1033  0025B2  0E00               	movlw	0
  1034  0025B4  6E43               	movwf	_adc_tick^0,c	;volatile
  1035                           
  1036                           ;main.c: 144:    if (disp_tick) {
  1037  0025B6  5044               	movf	_disp_tick^0,w,c	;volatile
  1038  0025B8  B4D8               	btfsc	status,2,c
  1039  0025BA  D7B8               	goto	l3651
  1040                           
  1041                           ;main.c: 145:     sprintf(buff1, "PS: V=%4u I=%4u \r\n", ana[0], ana[1]);
  1042  0025BC  0E00               	movlw	low _buff1
  1043  0025BE  0100               	movlb	0	; () banked
  1044  0025C0  6FD4               	movwf	sprintf@s& (0+255),b
  1045  0025C2  0E02               	movlw	high _buff1
  1046  0025C4  6FD5               	movwf	(sprintf@s+1)& (0+255),b
  1047  0025C6  0E06               	movlw	low STR_1
  1048  0025C8  6FD6               	movwf	sprintf@fmt& (0+255),b
  1049  0025CA  C038  F0D7         	movff	_ana,?_sprintf+3	;volatile
  1050  0025CE  C039  F0D8         	movff	_ana+1,?_sprintf+4	;volatile
  1051  0025D2  C03A  F0D9         	movff	_ana+2,?_sprintf+5	;volatile
  1052  0025D6  C03B  F0DA         	movff	_ana+3,?_sprintf+6	;volatile
  1053  0025DA  EC17  F017         	call	_sprintf	;wreg free
  1054                           
  1055                           ; BSR set to: 0
  1056                           ;main.c: 146:     puts(buff1);
  1057  0025DE  0E00               	movlw	low _buff1
  1058  0025E0  6E27               	movwf	puts@s^0,c
  1059  0025E2  0E02               	movlw	high _buff1
  1060  0025E4  6E28               	movwf	(puts@s+1)^0,c
  1061  0025E6  ECD3  F017         	call	_puts	;wreg free
  1062                           
  1063                           ;main.c: 147:     DAC1_SetOutput(++dac_v);
  1064  0025EA  0100               	movlb	0	; () banked
  1065  0025EC  2BE7               	incf	main@dac_v& (0+255),f,b
  1066  0025EE  51E7               	movf	main@dac_v& (0+255),w,b
  1067  0025F0  EC49  F019         	call	_DAC1_SetOutput
  1068                           
  1069                           ;main.c: 148:     disp_tick = 0;
  1070  0025F4  0E00               	movlw	0
  1071  0025F6  6E44               	movwf	_disp_tick^0,c	;volatile
  1072  0025F8  D799               	goto	l3651
  1073  0025FA                     __end_of_main:
  1074                           	callstack 0
  1075                           
  1076 ;; *************** function _sprintf *****************
  1077 ;; Defined at:
  1078 ;;		line 9 in file "/opt/microchip/xc8/v2.35/pic/sources/c99/common/nf_sprintf.c"
  1079 ;; Parameters:    Size  Location     Type
  1080 ;;  s               2   42[BANK0 ] PTR unsigned char 
  1081 ;;		 -> buff1(128), 
  1082 ;;  fmt             1   44[BANK0 ] PTR const unsigned char 
  1083 ;;		 -> STR_1(19), 
  1084 ;; Auto vars:     Size  Location     Type
  1085 ;;  f              11   50[BANK0 ] struct _IO_FILE
  1086 ;;  ret             2    0        int 
  1087 ;;  ap              1   49[BANK0 ] PTR void [1]
  1088 ;;		 -> ?_sprintf(2), 
  1089 ;; Return value:  Size  Location     Type
  1090 ;;                  2   42[BANK0 ] int 
  1091 ;; Registers used:
  1092 ;;		wreg, fsr1l, fsr1h, fsr2l, fsr2h, status,2, status,0, tblptrl, tblptrh, tblptru, prodl, prodh, cstack
  1093 ;; Tracked objects:
  1094 ;;		On entry : 3F/0
  1095 ;;		On exit  : 3F/0
  1096 ;;		Unchanged: 0/0
  1097 ;; Data sizes:     COMRAM   BANK0   BANK1   BANK2   BANK3   BANK4   BANK5   BANK6   BANK7   BANK8   BANK9  BANK10  BANK1
      +1  BANK12  BANK13  BANK14  BANK15  BANK16  BANK17  BANK18  BANK19  BANK20  BANK21  BANK22  BANK23  BANK24  BANK25  BANK2
      +6  BANK27  BANK28  BANK29  BANK30  BANK31
  1098 ;;      Params:         0       7       0       0       0       0       0       0       0       0       0       0       
      +0       0       0       0       0       0       0       0       0       0       0       0       0       0       0       
      +0       0       0       0       0       0
  1099 ;;      Locals:         0      12       0       0       0       0       0       0       0       0       0       0       
      +0       0       0       0       0       0       0       0       0       0       0       0       0       0       0       
      +0       0       0       0       0       0
  1100 ;;      Temps:          0       0       0       0       0       0       0       0       0       0       0       0       
      +0       0       0       0       0       0       0       0       0       0       0       0       0       0       0       
      +0       0       0       0       0       0
  1101 ;;      Totals:         0      19       0       0       0       0       0       0       0       0       0       0       
      +0       0       0       0       0       0       0       0       0       0       0       0       0       0       0       
      +0       0       0       0       0       0
  1102 ;;Total ram usage:       19 bytes
  1103 ;; Hardware stack levels used: 1
  1104 ;; Hardware stack levels required when called: 12
  1105 ;; This function calls:
  1106 ;;		_vfprintf
  1107 ;; This function is called by:
  1108 ;;		_main
  1109 ;; This function uses a non-reentrant model
  1110 ;;
  1111                           
  1112                           	psect	text1
  1113  002E2E                     __ptext1:
  1114                           	callstack 0
  1115  002E2E                     _sprintf:
  1116                           	callstack 18
  1117                           
  1118                           ; BSR set to: 0
  1119                           
  1120                           ;incstack = 0
  1121  002E2E  0ED7               	movlw	low (?_sprintf+3)
  1122  002E30  6FDB               	movwf	sprintf@ap& (0+255),b
  1123  002E32  C0D4  F0DC         	movff	sprintf@s,sprintf@f
  1124  002E36  C0D5  F0DD         	movff	sprintf@s+1,sprintf@f+1
  1125                           
  1126                           ; BSR set to: 0
  1127  002E3A  0E00               	movlw	0
  1128  002E3C  6FE0               	movwf	(sprintf@f+4)& (0+255),b
  1129  002E3E  0E00               	movlw	0
  1130  002E40  6FDF               	movwf	(sprintf@f+3)& (0+255),b
  1131                           
  1132                           ; BSR set to: 0
  1133  002E42  0E00               	movlw	0
  1134  002E44  6FE6               	movwf	(sprintf@f+10)& (0+255),b
  1135  002E46  0E00               	movlw	0
  1136  002E48  6FE5               	movwf	(sprintf@f+9)& (0+255),b
  1137                           
  1138                           ; BSR set to: 0
  1139  002E4A  0EDC               	movlw	low sprintf@f
  1140  002E4C  6FD0               	movwf	vfprintf@fp& (0+255),b
  1141  002E4E  C0D6  F0D1         	movff	sprintf@fmt,vfprintf@fmt
  1142  002E52  0EDB               	movlw	low sprintf@ap
  1143  002E54  6FD2               	movwf	vfprintf@ap& (0+255),b
  1144  002E56  EC4B  F016         	call	_vfprintf	;wreg free
  1145                           
  1146                           ; BSR set to: 0
  1147  002E5A  51DF               	movf	(sprintf@f+3)& (0+255),w,b
  1148  002E5C  25D4               	addwf	sprintf@s& (0+255),w,b
  1149  002E5E  6ED9               	movwf	fsr2l,c
  1150  002E60  51E0               	movf	(sprintf@f+4)& (0+255),w,b
  1151  002E62  21D5               	addwfc	(sprintf@s+1)& (0+255),w,b
  1152  002E64  6EDA               	movwf	fsr2h,c
  1153  002E66  0E00               	movlw	0
  1154  002E68  6EDF               	movwf	indf2,c
  1155                           
  1156                           ; BSR set to: 0
  1157  002E6A  0012               	return		;funcret
  1158  002E6C                     __end_of_sprintf:
  1159                           	callstack 0
  1160                           
  1161 ;; *************** function _vfprintf *****************
  1162 ;; Defined at:
  1163 ;;		line 1390 in file "/opt/microchip/xc8/v2.35/pic/sources/c99/common/doprnt.c"
  1164 ;; Parameters:    Size  Location     Type
  1165 ;;  fp              1   38[BANK0 ] PTR struct _IO_FILE
  1166 ;;		 -> sprintf@f(11), 
  1167 ;;  fmt             1   39[BANK0 ] PTR const unsigned char 
  1168 ;;		 -> STR_1(19), 
  1169 ;;  ap              1   40[BANK0 ] PTR PTR void 
  1170 ;;		 -> sprintf@ap(1), 
  1171 ;; Auto vars:     Size  Location     Type
  1172 ;;  cfmt            1   41[BANK0 ] PTR unsigned char 
  1173 ;;		 -> STR_1(19), 
  1174 ;; Return value:  Size  Location     Type
  1175 ;;                  2   38[BANK0 ] int 
  1176 ;; Registers used:
  1177 ;;		wreg, fsr1l, fsr1h, fsr2l, fsr2h, status,2, status,0, tblptrl, tblptrh, tblptru, prodl, prodh, cstack
  1178 ;; Tracked objects:
  1179 ;;		On entry : 3F/0
  1180 ;;		On exit  : 3F/0
  1181 ;;		Unchanged: 0/0
  1182 ;; Data sizes:     COMRAM   BANK0   BANK1   BANK2   BANK3   BANK4   BANK5   BANK6   BANK7   BANK8   BANK9  BANK10  BANK1
      +1  BANK12  BANK13  BANK14  BANK15  BANK16  BANK17  BANK18  BANK19  BANK20  BANK21  BANK22  BANK23  BANK24  BANK25  BANK2
      +6  BANK27  BANK28  BANK29  BANK30  BANK31
  1183 ;;      Params:         0       3       0       0       0       0       0       0       0       0       0       0       
      +0       0       0       0       0       0       0       0       0       0       0       0       0       0       0       
      +0       0       0       0       0       0
  1184 ;;      Locals:         0       1       0       0       0       0       0       0       0       0       0       0       
      +0       0       0       0       0       0       0       0       0       0       0       0       0       0       0       
      +0       0       0       0       0       0
  1185 ;;      Temps:          0       0       0       0       0       0       0       0       0       0       0       0       
      +0       0       0       0       0       0       0       0       0       0       0       0       0       0       0       
      +0       0       0       0       0       0
  1186 ;;      Totals:         0       4       0       0       0       0       0       0       0       0       0       0       
      +0       0       0       0       0       0       0       0       0       0       0       0       0       0       0       
      +0       0       0       0       0       0
  1187 ;;Total ram usage:        4 bytes
  1188 ;; Hardware stack levels used: 1
  1189 ;; Hardware stack levels required when called: 11
  1190 ;; This function calls:
  1191 ;;		_vfpfcnvrt
  1192 ;; This function is called by:
  1193 ;;		_sprintf
  1194 ;; This function uses a non-reentrant model
  1195 ;;
  1196                           
  1197                           	psect	text2
  1198  002C96                     __ptext2:
  1199                           	callstack 0
  1200  002C96                     _vfprintf:
  1201                           	callstack 18
  1202                           
  1203                           ; BSR set to: 0
  1204                           ;/opt/microchip/xc8/v2.35/pic/sources/c99/common/doprnt.c: 1390: int vfprintf(FILE *fp, 
      +                          const char *fmt, va_list ap);/opt/microchip/xc8/v2.35/pic/sources/c99/common/doprnt.c: 1
      +                          391: {;/opt/microchip/xc8/v2.35/pic/sources/c99/common/doprnt.c: 1393:     char *cfmt;;/
      +                          opt/microchip/xc8/v2.35/pic/sources/c99/common/doprnt.c: 1395:     cfmt = (char *)fmt;
  1205                           
  1206                           ; BSR set to: 0
  1207                           ;incstack = 0
  1208  002C96  C0D1  F0D3         	movff	vfprintf@fmt,vfprintf@cfmt
  1209                           
  1210                           ; BSR set to: 0
  1211                           ;/opt/microchip/xc8/v2.35/pic/sources/c99/common/doprnt.c: 1396:     nout = 0;
  1212  002C9A  0E00               	movlw	0
  1213  002C9C  6F85               	movwf	(_nout+1)& (0+255),b
  1214  002C9E  0E00               	movlw	0
  1215  002CA0  6F84               	movwf	_nout& (0+255),b
  1216                           
  1217                           ;/opt/microchip/xc8/v2.35/pic/sources/c99/common/doprnt.c: 1397:     while (*cfmt) {
  1218  002CA2  D00D               	goto	l3585
  1219  002CA4                     l3583:
  1220                           
  1221                           ; BSR set to: 0
  1222                           ;/opt/microchip/xc8/v2.35/pic/sources/c99/common/doprnt.c: 1398:         nout += vfpfcnv
      +                          rt(fp, &cfmt, ap);
  1223  002CA4  C0D0  F0C1         	movff	vfprintf@fp,vfpfcnvrt@fp
  1224  002CA8  0ED3               	movlw	low vfprintf@cfmt
  1225  002CAA  6FC2               	movwf	vfpfcnvrt@fmt& (0+255),b
  1226  002CAC  C0D2  F0C3         	movff	vfprintf@ap,vfpfcnvrt@ap
  1227  002CB0  EC0D  F010         	call	_vfpfcnvrt	;wreg free
  1228  002CB4  0100               	movlb	0	; () banked
  1229  002CB6  51C1               	movf	?_vfpfcnvrt& (0+255),w,b
  1230  002CB8  2784               	addwf	_nout& (0+255),f,b
  1231  002CBA  51C2               	movf	(?_vfpfcnvrt+1)& (0+255),w,b
  1232  002CBC  2385               	addwfc	(_nout+1)& (0+255),f,b
  1233  002CBE                     l3585:
  1234                           
  1235                           ; BSR set to: 0
  1236                           ;/opt/microchip/xc8/v2.35/pic/sources/c99/common/doprnt.c: 1397:     while (*cfmt) {
  1237  002CBE  0060  F34F  FFF6   	movff	vfprintf@cfmt,tblptrl
  1238  002CC4                     	if	1	;There is more than 1 active tblptr byte
  1239  002CC4  0E20               	movlw	high __smallconst
  1240  002CC6  6EF7               	movwf	tblptrh,c
  1241  002CC8                     	endif
  1242  002CC8                     	if	0	;tblptru may be non-zero
  1243  002CC8                     	endif
  1244  002CC8                     	if	1	;Program memory is > 0xFFFF, there are 3 active tblptr bytes
  1245  002CC8  0E00               	movlw	low (__smallconst shr (0+16))
  1246  002CCA  6EF8               	movwf	tblptru,c
  1247  002CCC                     	endif
  1248  002CCC  0008               	tblrd		*
  1249  002CCE  50F5               	movf	tablat,w,c
  1250  002CD0  0900               	iorlw	0
  1251  002CD2  A4D8               	btfss	status,2,c
  1252  002CD4  D7E7               	goto	l3583
  1253                           
  1254                           ; BSR set to: 0
  1255                           ;/opt/microchip/xc8/v2.35/pic/sources/c99/common/doprnt.c: 1400:     return nout;
  1256  002CD6  C084  F0D0         	movff	_nout,?_vfprintf
  1257  002CDA  C085  F0D1         	movff	_nout+1,?_vfprintf+1
  1258                           
  1259                           ; BSR set to: 0
  1260  002CDE  0012               	return		;funcret
  1261  002CE0                     __end_of_vfprintf:
  1262                           	callstack 0
  1263                           
  1264 ;; *************** function _vfpfcnvrt *****************
  1265 ;; Defined at:
  1266 ;;		line 692 in file "/opt/microchip/xc8/v2.35/pic/sources/c99/common/doprnt.c"
  1267 ;; Parameters:    Size  Location     Type
  1268 ;;  fp              1   23[BANK0 ] PTR struct _IO_FILE
  1269 ;;		 -> sprintf@f(11), 
  1270 ;;  fmt             1   24[BANK0 ] PTR PTR unsigned char 
  1271 ;;		 -> vfprintf@cfmt(1), 
  1272 ;;  ap              1   25[BANK0 ] PTR PTR void 
  1273 ;;		 -> sprintf@ap(1), 
  1274 ;; Auto vars:     Size  Location     Type
  1275 ;;  llu             8   30[BANK0 ] unsigned long long 
  1276 ;;  ll              8    0        long long 
  1277 ;;  f               4    0        long long 
  1278 ;;  vp              3    0        PTR void 
  1279 ;;  ct              3    0        unsigned char [3]
  1280 ;;  cp              3    0        PTR unsigned char 
  1281 ;;  i               2    0        int 
  1282 ;;  done            2    0        int 
  1283 ;;  c               1    0        unsigned char 
  1284 ;; Return value:  Size  Location     Type
  1285 ;;                  2   23[BANK0 ] int 
  1286 ;; Registers used:
  1287 ;;		wreg, fsr1l, fsr1h, fsr2l, fsr2h, status,2, status,0, tblptrl, tblptrh, tblptru, prodl, prodh, cstack
  1288 ;; Tracked objects:
  1289 ;;		On entry : 3F/0
  1290 ;;		On exit  : 0/0
  1291 ;;		Unchanged: 0/0
  1292 ;; Data sizes:     COMRAM   BANK0   BANK1   BANK2   BANK3   BANK4   BANK5   BANK6   BANK7   BANK8   BANK9  BANK10  BANK1
      +1  BANK12  BANK13  BANK14  BANK15  BANK16  BANK17  BANK18  BANK19  BANK20  BANK21  BANK22  BANK23  BANK24  BANK25  BANK2
      +6  BANK27  BANK28  BANK29  BANK30  BANK31
  1293 ;;      Params:         0       3       0       0       0       0       0       0       0       0       0       0       
      +0       0       0       0       0       0       0       0       0       0       0       0       0       0       0       
      +0       0       0       0       0       0
  1294 ;;      Locals:         0       8       0       0       0       0       0       0       0       0       0       0       
      +0       0       0       0       0       0       0       0       0       0       0       0       0       0       0       
      +0       0       0       0       0       0
  1295 ;;      Temps:          0       4       0       0       0       0       0       0       0       0       0       0       
      +0       0       0       0       0       0       0       0       0       0       0       0       0       0       0       
      +0       0       0       0       0       0
  1296 ;;      Totals:         0      15       0       0       0       0       0       0       0       0       0       0       
      +0       0       0       0       0       0       0       0       0       0       0       0       0       0       0       
      +0       0       0       0       0       0
  1297 ;;Total ram usage:       15 bytes
  1298 ;; Hardware stack levels used: 1
  1299 ;; Hardware stack levels required when called: 10
  1300 ;; This function calls:
  1301 ;;		_atoi
  1302 ;;		_fputc
  1303 ;;		_isdigit
  1304 ;;		_utoa
  1305 ;; This function is called by:
  1306 ;;		_vfprintf
  1307 ;; This function uses a non-reentrant model
  1308 ;;
  1309                           
  1310                           	psect	text3
  1311  00201A                     __ptext3:
  1312                           	callstack 0
  1313  00201A                     _vfpfcnvrt:
  1314                           	callstack 18
  1315                           
  1316                           ; BSR set to: 0
  1317                           ;/opt/microchip/xc8/v2.35/pic/sources/c99/common/doprnt.c: 692: static int vfpfcnvrt(FIL
      +                          E *fp, char *fmt[], va_list ap);/opt/microchip/xc8/v2.35/pic/sources/c99/common/doprnt.c
      +                          : 693: {;/opt/microchip/xc8/v2.35/pic/sources/c99/common/doprnt.c: 694:     char c, *cp,
      +                           ct[3];;/opt/microchip/xc8/v2.35/pic/sources/c99/common/doprnt.c: 695:     int done, i;;
      +                          /opt/microchip/xc8/v2.35/pic/sources/c99/common/doprnt.c: 696:     long long ll;;/opt/mi
      +                          crochip/xc8/v2.35/pic/sources/c99/common/doprnt.c: 697:     unsigned long long llu;
  1318                           
  1319                           ; BSR set to: 0
  1320                           ;incstack = 0
  1321  00201A  51C2               	movf	vfpfcnvrt@fmt& (0+255),w,b
  1322  00201C  6ED9               	movwf	fsr2l,c
  1323  00201E  6ADA               	clrf	fsr2h,c
  1324  002020  006F FF7F FFF6     	movff	indf2,tblptrl
  1325  002026                     	if	1	;There is more than 1 active tblptr byte
  1326  002026  0E20               	movlw	high __smallconst
  1327  002028  6EF7               	movwf	tblptrh,c
  1328  00202A                     	endif
  1329  00202A                     	if	0	;tblptru may be non-zero
  1330  00202A                     	endif
  1331  00202A                     	if	1	;Program memory is > 0xFFFF, there are 3 active tblptr bytes
  1332  00202A  0E00               	movlw	low (__smallconst shr (0+16))
  1333  00202C  6EF8               	movwf	tblptru,c
  1334  00202E                     	endif
  1335  00202E  0008               	tblrd		*
  1336  002030  50F5               	movf	tablat,w,c
  1337  002032  0A25               	xorlw	37
  1338  002034  A4D8               	btfss	status,2,c
  1339  002036  D0D3               	goto	l3441
  1340                           
  1341                           ; BSR set to: 0
  1342                           ;/opt/microchip/xc8/v2.35/pic/sources/c99/common/doprnt.c: 703:         ++*fmt;
  1343  002038  51C2               	movf	vfpfcnvrt@fmt& (0+255),w,b
  1344  00203A  6ED9               	movwf	fsr2l,c
  1345  00203C  6ADA               	clrf	fsr2h,c
  1346  00203E  2ADF               	incf	indf2,f,c
  1347                           
  1348                           ; BSR set to: 0
  1349                           ;/opt/microchip/xc8/v2.35/pic/sources/c99/common/doprnt.c: 705:         flags = width = 
      +                          0;
  1350  002040  0E00               	movlw	0
  1351  002042  6E3D               	movwf	(_width+1)^0,c
  1352  002044  0E00               	movlw	0
  1353  002046  6E3C               	movwf	_width^0,c
  1354  002048  C03C  F040         	movff	_width,_flags
  1355  00204C  C03D  F041         	movff	_width+1,_flags+1
  1356                           
  1357                           ; BSR set to: 0
  1358                           ;/opt/microchip/xc8/v2.35/pic/sources/c99/common/doprnt.c: 706:         prec = -1;
  1359  002050  683E               	setf	_prec^0,c
  1360  002052  683F               	setf	(_prec+1)^0,c
  1361                           
  1362                           ; BSR set to: 0
  1363                           ;/opt/microchip/xc8/v2.35/pic/sources/c99/common/doprnt.c: 745:         if ((*fmt)[0] ==
      +                           '*') {
  1364  002054  51C2               	movf	vfpfcnvrt@fmt& (0+255),w,b
  1365  002056  6ED9               	movwf	fsr2l,c
  1366  002058  6ADA               	clrf	fsr2h,c
  1367  00205A  006F FF7F FFF6     	movff	indf2,tblptrl
  1368  002060                     	if	1	;There is more than 1 active tblptr byte
  1369  002060  0E20               	movlw	high __smallconst
  1370  002062  6EF7               	movwf	tblptrh,c
  1371  002064                     	endif
  1372  002064                     	if	0	;tblptru may be non-zero
  1373  002064                     	endif
  1374  002064                     	if	1	;Program memory is > 0xFFFF, there are 3 active tblptr bytes
  1375  002064  0E00               	movlw	low (__smallconst shr (0+16))
  1376  002066  6EF8               	movwf	tblptru,c
  1377  002068                     	endif
  1378  002068  0008               	tblrd		*
  1379  00206A  50F5               	movf	tablat,w,c
  1380  00206C  0A2A               	xorlw	42
  1381  00206E  A4D8               	btfss	status,2,c
  1382  002070  D01A               	goto	l3407
  1383                           
  1384                           ; BSR set to: 0
  1385                           ;/opt/microchip/xc8/v2.35/pic/sources/c99/common/doprnt.c: 746:             ++*fmt;
  1386  002072  51C2               	movf	vfpfcnvrt@fmt& (0+255),w,b
  1387  002074  6ED9               	movwf	fsr2l,c
  1388  002076  6ADA               	clrf	fsr2h,c
  1389  002078  2ADF               	incf	indf2,f,c
  1390                           
  1391                           ; BSR set to: 0
  1392                           ;/opt/microchip/xc8/v2.35/pic/sources/c99/common/doprnt.c: 747:             width = (*(i
      +                          nt *)__va_arg(*(int **)ap, (int)0));
  1393  00207A  51C3               	movf	vfpfcnvrt@ap& (0+255),w,b
  1394  00207C  6ED9               	movwf	fsr2l,c
  1395  00207E  6ADA               	clrf	fsr2h,c
  1396  002080  0E02               	movlw	2
  1397  002082  26DF               	addwf	indf2,f,c
  1398  002084  5CDF               	subwf	indf2,w,c
  1399  002086  6ED9               	movwf	fsr2l,c
  1400  002088  6ADA               	clrf	fsr2h,c
  1401  00208A  006F FF78  F03C    	movff	postinc2,_width
  1402  002090  006F FF78  F03D    	movff	postinc2,_width+1
  1403                           
  1404                           ; BSR set to: 0
  1405                           ;/opt/microchip/xc8/v2.35/pic/sources/c99/common/doprnt.c: 748:             if (width < 
      +                          0) {
  1406  002096  AE3D               	btfss	(_width+1)^0,7,c
  1407  002098  D033               	goto	u1930
  1408                           
  1409                           ; BSR set to: 0
  1410                           ;/opt/microchip/xc8/v2.35/pic/sources/c99/common/doprnt.c: 749:                 flags |=
      +                           (1 << 0);
  1411  00209A  8040               	bsf	_flags^0,0,c
  1412                           
  1413                           ;/opt/microchip/xc8/v2.35/pic/sources/c99/common/doprnt.c: 750:                 width = 
      +                          -width;
  1414  00209C  6C3C               	negf	_width^0,c
  1415  00209E  1E3D               	comf	(_width+1)^0,f,c
  1416  0020A0  B0D8               	btfsc	status,0,c
  1417  0020A2  2A3D               	incf	(_width+1)^0,f,c
  1418  0020A4  D02D               	goto	u1930
  1419  0020A6                     l3407:
  1420                           
  1421                           ; BSR set to: 0
  1422                           ;/opt/microchip/xc8/v2.35/pic/sources/c99/common/doprnt.c: 753:             width = atoi
      +                          (*fmt);
  1423  0020A6  51C2               	movf	vfpfcnvrt@fmt& (0+255),w,b
  1424  0020A8  6ED9               	movwf	fsr2l,c
  1425  0020AA  6ADA               	clrf	fsr2h,c
  1426  0020AC  50DF               	movf	indf2,w,c
  1427  0020AE  6E1C               	movwf	atoi@s^0,c
  1428  0020B0  ECD7  F011         	call	_atoi	;wreg free
  1429  0020B4  C01C  F03C         	movff	?_atoi,_width
  1430  0020B8  C01D  F03D         	movff	?_atoi+1,_width+1
  1431                           
  1432                           ;/opt/microchip/xc8/v2.35/pic/sources/c99/common/doprnt.c: 754:             while ((0 &&
      +                           isdigit((*fmt)[0]), ((unsigned)((*fmt)[0])-'0') < 10)) {
  1433  0020BC  D004               	goto	l3413
  1434  0020BE                     l3409:
  1435                           
  1436                           ; BSR set to: 0
  1437                           ;/opt/microchip/xc8/v2.35/pic/sources/c99/common/doprnt.c: 755:                 ++*fmt;
  1438  0020BE  51C2               	movf	vfpfcnvrt@fmt& (0+255),w,b
  1439  0020C0  6ED9               	movwf	fsr2l,c
  1440  0020C2  6ADA               	clrf	fsr2h,c
  1441  0020C4  2ADF               	incf	indf2,f,c
  1442  0020C6                     l3413:
  1443  0020C6  0ED0               	movlw	208
  1444  0020C8  0100               	movlb	0	; () banked
  1445  0020CA  6FC4               	movwf	??_vfpfcnvrt& (0+255),b
  1446  0020CC  0EFF               	movlw	255
  1447  0020CE  6FC5               	movwf	(??_vfpfcnvrt+1)& (0+255),b
  1448  0020D0  51C2               	movf	vfpfcnvrt@fmt& (0+255),w,b
  1449  0020D2  6ED9               	movwf	fsr2l,c
  1450  0020D4  6ADA               	clrf	fsr2h,c
  1451  0020D6  006F FF7F FFF6     	movff	indf2,tblptrl
  1452  0020DC                     	if	1	;There is more than 1 active tblptr byte
  1453  0020DC  0E20               	movlw	high __smallconst
  1454  0020DE  6EF7               	movwf	tblptrh,c
  1455  0020E0                     	endif
  1456  0020E0                     	if	0	;tblptru may be non-zero
  1457  0020E0                     	endif
  1458  0020E0                     	if	1	;Program memory is > 0xFFFF, there are 3 active tblptr bytes
  1459  0020E0  0E00               	movlw	low (__smallconst shr (0+16))
  1460  0020E2  6EF8               	movwf	tblptru,c
  1461  0020E4                     	endif
  1462  0020E4  0008               	tblrd		*
  1463  0020E6  50F5               	movf	tablat,w,c
  1464  0020E8  6FC6               	movwf	(??_vfpfcnvrt+2)& (0+255),b
  1465  0020EA  6BC7               	clrf	(??_vfpfcnvrt+3)& (0+255),b
  1466  0020EC  51C4               	movf	??_vfpfcnvrt& (0+255),w,b
  1467  0020EE  27C6               	addwf	(??_vfpfcnvrt+2)& (0+255),f,b
  1468  0020F0  51C5               	movf	(??_vfpfcnvrt+1)& (0+255),w,b
  1469  0020F2  23C7               	addwfc	(??_vfpfcnvrt+3)& (0+255),f,b
  1470  0020F4  51C7               	movf	(??_vfpfcnvrt+3)& (0+255),w,b
  1471  0020F6  E104               	bnz	u1930
  1472  0020F8  0E0A               	movlw	10
  1473  0020FA  5DC6               	subwf	(??_vfpfcnvrt+2)& (0+255),w,b
  1474  0020FC  A0D8               	btfss	status,0,c
  1475  0020FE  D7DF               	goto	l3409
  1476  002100                     u1930:
  1477                           
  1478                           ; BSR set to: 0
  1479                           ;/opt/microchip/xc8/v2.35/pic/sources/c99/common/doprnt.c: 1204:         if (*fmt[0] == 
      +                          'u') {
  1480  002100  51C2               	movf	vfpfcnvrt@fmt& (0+255),w,b
  1481  002102  6ED9               	movwf	fsr2l,c
  1482  002104  6ADA               	clrf	fsr2h,c
  1483  002106  006F FF7F FFF6     	movff	indf2,tblptrl
  1484  00210C                     	if	1	;There is more than 1 active tblptr byte
  1485  00210C  0E20               	movlw	high __smallconst
  1486  00210E  6EF7               	movwf	tblptrh,c
  1487  002110                     	endif
  1488  002110                     	if	0	;tblptru may be non-zero
  1489  002110                     	endif
  1490  002110                     	if	1	;Program memory is > 0xFFFF, there are 3 active tblptr bytes
  1491  002110  0E00               	movlw	low (__smallconst shr (0+16))
  1492  002112  6EF8               	movwf	tblptru,c
  1493  002114                     	endif
  1494  002114  0008               	tblrd		*
  1495  002116  50F5               	movf	tablat,w,c
  1496  002118  0A75               	xorlw	117
  1497  00211A  A4D8               	btfss	status,2,c
  1498  00211C  D035               	goto	l3425
  1499                           
  1500                           ; BSR set to: 0
  1501                           ;/opt/microchip/xc8/v2.35/pic/sources/c99/common/doprnt.c: 1206:             ++*fmt;
  1502  00211E  51C2               	movf	vfpfcnvrt@fmt& (0+255),w,b
  1503  002120  6ED9               	movwf	fsr2l,c
  1504  002122  6ADA               	clrf	fsr2h,c
  1505  002124  2ADF               	incf	indf2,f,c
  1506                           
  1507                           ; BSR set to: 0
  1508                           ;/opt/microchip/xc8/v2.35/pic/sources/c99/common/doprnt.c: 1207:             llu = (unsi
      +                          gned long long)(*(unsigned int *)__va_arg(*(unsigned int **)ap, (unsigned int)0));
  1509  002126  51C3               	movf	vfpfcnvrt@ap& (0+255),w,b
  1510  002128  6ED9               	movwf	fsr2l,c
  1511  00212A  6ADA               	clrf	fsr2h,c
  1512  00212C  50DF               	movf	indf2,w,c
  1513  00212E  2ADF               	incf	indf2,f,c
  1514  002130  2ADF               	incf	indf2,f,c
  1515  002132  6ED9               	movwf	fsr2l,c
  1516  002134  6ADA               	clrf	fsr2h,c
  1517  002136  006F FF78  F0C4    	movff	postinc2,??_vfpfcnvrt
  1518  00213C  006F FF74  F0C5    	movff	postdec2,??_vfpfcnvrt+1
  1519  002142  C0C4  F0C8         	movff	??_vfpfcnvrt,vfpfcnvrt@llu
  1520  002146  C0C5  F0C9         	movff	??_vfpfcnvrt+1,vfpfcnvrt@llu+1
  1521  00214A  6BCA               	clrf	(vfpfcnvrt@llu+2)& (0+255),b
  1522  00214C  6BCB               	clrf	(vfpfcnvrt@llu+3)& (0+255),b
  1523  00214E  6BCC               	clrf	(vfpfcnvrt@llu+4)& (0+255),b
  1524  002150  6BCD               	clrf	(vfpfcnvrt@llu+5)& (0+255),b
  1525  002152  6BCE               	clrf	(vfpfcnvrt@llu+6)& (0+255),b
  1526  002154  6BCF               	clrf	(vfpfcnvrt@llu+7)& (0+255),b
  1527                           
  1528                           ; BSR set to: 0
  1529                           ;/opt/microchip/xc8/v2.35/pic/sources/c99/common/doprnt.c: 1209:             return utoa
      +                          (fp, llu);
  1530  002156  C0C1  F0AA         	movff	vfpfcnvrt@fp,utoa@fp
  1531  00215A  C0C8  F0AB         	movff	vfpfcnvrt@llu,utoa@d
  1532  00215E  C0C9  F0AC         	movff	vfpfcnvrt@llu+1,utoa@d+1
  1533  002162  C0CA  F0AD         	movff	vfpfcnvrt@llu+2,utoa@d+2
  1534  002166  C0CB  F0AE         	movff	vfpfcnvrt@llu+3,utoa@d+3
  1535  00216A  C0CC  F0AF         	movff	vfpfcnvrt@llu+4,utoa@d+4
  1536  00216E  C0CD  F0B0         	movff	vfpfcnvrt@llu+5,utoa@d+5
  1537  002172  C0CE  F0B1         	movff	vfpfcnvrt@llu+6,utoa@d+6
  1538  002176  C0CF  F0B2         	movff	vfpfcnvrt@llu+7,utoa@d+7
  1539  00217A  EC08  F011         	call	_utoa	;wreg free
  1540  00217E  C0AA  F0C1         	movff	?_utoa,?_vfpfcnvrt
  1541  002182  C0AB  F0C2         	movff	?_utoa+1,?_vfpfcnvrt+1
  1542  002186  0012               	return	
  1543  002188                     l3425:
  1544                           
  1545                           ; BSR set to: 0
  1546                           ;/opt/microchip/xc8/v2.35/pic/sources/c99/common/doprnt.c: 1372:         if ((*fmt)[0] =
      +                          = '%') {
  1547  002188  51C2               	movf	vfpfcnvrt@fmt& (0+255),w,b
  1548  00218A  6ED9               	movwf	fsr2l,c
  1549  00218C  6ADA               	clrf	fsr2h,c
  1550  00218E  006F FF7F FFF6     	movff	indf2,tblptrl
  1551  002194                     	if	1	;There is more than 1 active tblptr byte
  1552  002194  0E20               	movlw	high __smallconst
  1553  002196  6EF7               	movwf	tblptrh,c
  1554  002198                     	endif
  1555  002198                     	if	0	;tblptru may be non-zero
  1556  002198                     	endif
  1557  002198                     	if	1	;Program memory is > 0xFFFF, there are 3 active tblptr bytes
  1558  002198  0E00               	movlw	low (__smallconst shr (0+16))
  1559  00219A  6EF8               	movwf	tblptru,c
  1560  00219C                     	endif
  1561  00219C  0008               	tblrd		*
  1562  00219E  50F5               	movf	tablat,w,c
  1563  0021A0  0A25               	xorlw	37
  1564  0021A2  A4D8               	btfss	status,2,c
  1565  0021A4  D013               	goto	l3435
  1566                           
  1567                           ; BSR set to: 0
  1568                           ;/opt/microchip/xc8/v2.35/pic/sources/c99/common/doprnt.c: 1373:             ++*fmt;
  1569  0021A6  51C2               	movf	vfpfcnvrt@fmt& (0+255),w,b
  1570  0021A8  6ED9               	movwf	fsr2l,c
  1571  0021AA  6ADA               	clrf	fsr2h,c
  1572  0021AC  2ADF               	incf	indf2,f,c
  1573                           
  1574                           ; BSR set to: 0
  1575                           ;/opt/microchip/xc8/v2.35/pic/sources/c99/common/doprnt.c: 1374:             fputc((int)
      +                          '%', fp);
  1576  0021AE  0E00               	movlw	0
  1577  0021B0  6E18               	movwf	(fputc@c+1)^0,c
  1578  0021B2  0E25               	movlw	37
  1579  0021B4  6E17               	movwf	fputc@c^0,c
  1580  0021B6  C0C1  F019         	movff	vfpfcnvrt@fp,fputc@fp
  1581  0021BA  6A1A               	clrf	(fputc@fp+1)^0,c
  1582  0021BC  EC7E  F014         	call	_fputc	;wreg free
  1583  0021C0                     l3431:
  1584                           
  1585                           ;/opt/microchip/xc8/v2.35/pic/sources/c99/common/doprnt.c: 1375:             return 1;
  1586  0021C0  0E00               	movlw	0
  1587  0021C2  0100               	movlb	0	; () banked
  1588  0021C4  6FC2               	movwf	(?_vfpfcnvrt+1)& (0+255),b
  1589  0021C6  0E01               	movlw	1
  1590  0021C8  6FC1               	movwf	?_vfpfcnvrt& (0+255),b
  1591  0021CA  0012               	return	
  1592  0021CC                     l3435:
  1593                           
  1594                           ; BSR set to: 0
  1595                           ;/opt/microchip/xc8/v2.35/pic/sources/c99/common/doprnt.c: 1379:         ++*fmt;
  1596  0021CC  51C2               	movf	vfpfcnvrt@fmt& (0+255),w,b
  1597  0021CE  6ED9               	movwf	fsr2l,c
  1598  0021D0  6ADA               	clrf	fsr2h,c
  1599  0021D2  2ADF               	incf	indf2,f,c
  1600                           
  1601                           ; BSR set to: 0
  1602                           ;/opt/microchip/xc8/v2.35/pic/sources/c99/common/doprnt.c: 1380:         return 0;
  1603  0021D4  0E00               	movlw	0
  1604  0021D6  6FC2               	movwf	(?_vfpfcnvrt+1)& (0+255),b
  1605  0021D8  0E00               	movlw	0
  1606  0021DA  6FC1               	movwf	?_vfpfcnvrt& (0+255),b
  1607  0021DC  0012               	return	
  1608  0021DE                     l3441:
  1609                           
  1610                           ; BSR set to: 0
  1611                           ;/opt/microchip/xc8/v2.35/pic/sources/c99/common/doprnt.c: 1384:     fputc((int)(*fmt)[0
      +                          ], fp);
  1612  0021DE  51C2               	movf	vfpfcnvrt@fmt& (0+255),w,b
  1613  0021E0  6ED9               	movwf	fsr2l,c
  1614  0021E2  6ADA               	clrf	fsr2h,c
  1615  0021E4  006F FF7F FFF6     	movff	indf2,tblptrl
  1616  0021EA                     	if	1	;There is more than 1 active tblptr byte
  1617  0021EA  0E20               	movlw	high __smallconst
  1618  0021EC  6EF7               	movwf	tblptrh,c
  1619  0021EE                     	endif
  1620  0021EE                     	if	0	;tblptru may be non-zero
  1621  0021EE                     	endif
  1622  0021EE                     	if	1	;Program memory is > 0xFFFF, there are 3 active tblptr bytes
  1623  0021EE  0E00               	movlw	low (__smallconst shr (0+16))
  1624  0021F0  6EF8               	movwf	tblptru,c
  1625  0021F2                     	endif
  1626  0021F2  0008               	tblrd		*
  1627  0021F4  50F5               	movf	tablat,w,c
  1628  0021F6  6E17               	movwf	fputc@c^0,c
  1629  0021F8  6A18               	clrf	(fputc@c+1)^0,c
  1630  0021FA  C0C1  F019         	movff	vfpfcnvrt@fp,fputc@fp
  1631  0021FE  6A1A               	clrf	(fputc@fp+1)^0,c
  1632  002200  EC7E  F014         	call	_fputc	;wreg free
  1633                           
  1634                           ;/opt/microchip/xc8/v2.35/pic/sources/c99/common/doprnt.c: 1385:     ++*fmt;
  1635  002204  0100               	movlb	0	; () banked
  1636  002206  51C2               	movf	vfpfcnvrt@fmt& (0+255),w,b
  1637  002208  6ED9               	movwf	fsr2l,c
  1638  00220A  6ADA               	clrf	fsr2h,c
  1639  00220C  2ADF               	incf	indf2,f,c
  1640  00220E  D7D8               	goto	l3431
  1641  002210                     __end_of_vfpfcnvrt:
  1642                           	callstack 0
  1643                           
  1644 ;; *************** function _utoa *****************
  1645 ;; Defined at:
  1646 ;;		line 615 in file "/opt/microchip/xc8/v2.35/pic/sources/c99/common/doprnt.c"
  1647 ;; Parameters:    Size  Location     Type
  1648 ;;  fp              1    0[BANK0 ] PTR struct _IO_FILE
  1649 ;;		 -> sprintf@f(11), 
  1650 ;;  d               8    1[BANK0 ] unsigned long long 
  1651 ;; Auto vars:     Size  Location     Type
  1652 ;;  n               8   13[BANK0 ] unsigned long long 
  1653 ;;  i               2   21[BANK0 ] int 
  1654 ;;  w               2   11[BANK0 ] int 
  1655 ;;  p               2    9[BANK0 ] int 
  1656 ;; Return value:  Size  Location     Type
  1657 ;;                  2    0[BANK0 ] int 
  1658 ;; Registers used:
  1659 ;;		wreg, fsr1l, fsr1h, fsr2l, fsr2h, status,2, status,0, cstack
  1660 ;; Tracked objects:
  1661 ;;		On entry : 3F/0
  1662 ;;		On exit  : 0/0
  1663 ;;		Unchanged: 0/0
  1664 ;; Data sizes:     COMRAM   BANK0   BANK1   BANK2   BANK3   BANK4   BANK5   BANK6   BANK7   BANK8   BANK9  BANK10  BANK1
      +1  BANK12  BANK13  BANK14  BANK15  BANK16  BANK17  BANK18  BANK19  BANK20  BANK21  BANK22  BANK23  BANK24  BANK25  BANK2
      +6  BANK27  BANK28  BANK29  BANK30  BANK31
  1665 ;;      Params:         0       9       0       0       0       0       0       0       0       0       0       0       
      +0       0       0       0       0       0       0       0       0       0       0       0       0       0       0       
      +0       0       0       0       0       0
  1666 ;;      Locals:         0      14       0       0       0       0       0       0       0       0       0       0       
      +0       0       0       0       0       0       0       0       0       0       0       0       0       0       0       
      +0       0       0       0       0       0
  1667 ;;      Temps:          8       0       0       0       0       0       0       0       0       0       0       0       
      +0       0       0       0       0       0       0       0       0       0       0       0       0       0       0       
      +0       0       0       0       0       0
  1668 ;;      Totals:         8      23       0       0       0       0       0       0       0       0       0       0       
      +0       0       0       0       0       0       0       0       0       0       0       0       0       0       0       
      +0       0       0       0       0       0
  1669 ;;Total ram usage:       31 bytes
  1670 ;; Hardware stack levels used: 1
  1671 ;; Hardware stack levels required when called: 9
  1672 ;; This function calls:
  1673 ;;		___lodiv
  1674 ;;		___lomod
  1675 ;;		_pad
  1676 ;; This function is called by:
  1677 ;;		_vfpfcnvrt
  1678 ;; This function uses a non-reentrant model
  1679 ;;
  1680                           
  1681                           	psect	text4
  1682  002210                     __ptext4:
  1683                           	callstack 0
  1684  002210                     _utoa:
  1685                           	callstack 18
  1686                           
  1687                           ; BSR set to: 0
  1688                           ;/opt/microchip/xc8/v2.35/pic/sources/c99/common/doprnt.c: 615: static int utoa(FILE *fp
      +                          , unsigned long long d);/opt/microchip/xc8/v2.35/pic/sources/c99/common/doprnt.c: 616: {
      +                          ;/opt/microchip/xc8/v2.35/pic/sources/c99/common/doprnt.c: 617:     int i, p, w;;/opt/mi
      +                          crochip/xc8/v2.35/pic/sources/c99/common/doprnt.c: 618:     unsigned long long n;;/opt/m
      +                          icrochip/xc8/v2.35/pic/sources/c99/common/doprnt.c: 621:     if (!(prec < 0)) {
  1689                           
  1690                           ;incstack = 0
  1691  002210  AE3F               	btfss	(_prec+1)^0,7,c
  1692                           
  1693                           ; BSR set to: 0
  1694                           ;/opt/microchip/xc8/v2.35/pic/sources/c99/common/doprnt.c: 622:         flags &= ~(1 << 
      +                          1);
  1695  002212  9240               	bcf	_flags^0,1,c
  1696                           
  1697                           ; BSR set to: 0
  1698                           ;/opt/microchip/xc8/v2.35/pic/sources/c99/common/doprnt.c: 624:     p = (0 < prec) ? pre
      +                          c : 1;
  1699  002214  BE3F               	btfsc	(_prec+1)^0,7,c
  1700  002216  D005               	goto	u1800
  1701  002218  503F               	movf	(_prec+1)^0,w,c
  1702  00221A  E108               	bnz	l1717
  1703  00221C  043E               	decf	_prec^0,w,c
  1704  00221E  B0D8               	btfsc	status,0,c
  1705  002220  D005               	goto	l1717
  1706  002222                     u1800:
  1707                           
  1708                           ; BSR set to: 0
  1709  002222  0E00               	movlw	0
  1710  002224  6FB4               	movwf	(utoa@p+1)& (0+255),b
  1711  002226  0E01               	movlw	1
  1712  002228  6FB3               	movwf	utoa@p& (0+255),b
  1713  00222A  D004               	goto	l1719
  1714  00222C                     l1717:
  1715                           
  1716                           ; BSR set to: 0
  1717  00222C  C03E  F0B3         	movff	_prec,utoa@p
  1718  002230  C03F  F0B4         	movff	_prec+1,utoa@p+1
  1719  002234                     l1719:
  1720                           
  1721                           ; BSR set to: 0
  1722                           ;/opt/microchip/xc8/v2.35/pic/sources/c99/common/doprnt.c: 625:     w = width;
  1723  002234  C03C  F0B5         	movff	_width,utoa@w
  1724  002238  C03D  F0B6         	movff	_width+1,utoa@w+1
  1725                           
  1726                           ;/opt/microchip/xc8/v2.35/pic/sources/c99/common/doprnt.c: 628:     n = d;
  1727  00223C  C0AB  F0B7         	movff	utoa@d,utoa@n
  1728  002240  C0AC  F0B8         	movff	utoa@d+1,utoa@n+1
  1729  002244  C0AD  F0B9         	movff	utoa@d+2,utoa@n+2
  1730  002248  C0AE  F0BA         	movff	utoa@d+3,utoa@n+3
  1731  00224C  C0AF  F0BB         	movff	utoa@d+4,utoa@n+4
  1732  002250  C0B0  F0BC         	movff	utoa@d+5,utoa@n+5
  1733  002254  C0B1  F0BD         	movff	utoa@d+6,utoa@n+6
  1734  002258  C0B2  F0BE         	movff	utoa@d+7,utoa@n+7
  1735                           
  1736                           ; BSR set to: 0
  1737                           ;/opt/microchip/xc8/v2.35/pic/sources/c99/common/doprnt.c: 629:     i = sizeof(dbuf) - 1
      +                          ;
  1738  00225C  0E00               	movlw	0
  1739  00225E  6FC0               	movwf	(utoa@i+1)& (0+255),b
  1740  002260  0E1F               	movlw	31
  1741  002262  6FBF               	movwf	utoa@i& (0+255),b
  1742                           
  1743                           ; BSR set to: 0
  1744                           ;/opt/microchip/xc8/v2.35/pic/sources/c99/common/doprnt.c: 630:     dbuf[i] = '\0';
  1745  002264  0E00               	movlw	0
  1746  002266  6FA9               	movwf	(_dbuf+31)& (0+255),b
  1747                           
  1748                           ;/opt/microchip/xc8/v2.35/pic/sources/c99/common/doprnt.c: 631:     while (i && (n || (0
      +                           < p) || ((0 < w) && (flags & (1 << 1))))) {
  1749  002268  D074               	goto	l3325
  1750  00226A                     l3315:
  1751                           
  1752                           ; BSR set to: 0
  1753                           ;/opt/microchip/xc8/v2.35/pic/sources/c99/common/doprnt.c: 632:         --i;
  1754  00226A  07BF               	decf	utoa@i& (0+255),f,b
  1755  00226C  A0D8               	btfss	status,0,c
  1756  00226E  07C0               	decf	(utoa@i+1)& (0+255),f,b
  1757                           
  1758                           ; BSR set to: 0
  1759                           ;/opt/microchip/xc8/v2.35/pic/sources/c99/common/doprnt.c: 633:         dbuf[i] = '0' + 
      +                          (n % 10);
  1760  002270  51BF               	movf	utoa@i& (0+255),w,b
  1761  002272  0F8A               	addlw	low _dbuf
  1762  002274  6ED9               	movwf	fsr2l,c
  1763  002276  6ADA               	clrf	fsr2h,c
  1764  002278  C0B7  F015         	movff	utoa@n,___lomod@dividend
  1765  00227C  C0B8  F016         	movff	utoa@n+1,___lomod@dividend+1
  1766  002280  C0B9  F017         	movff	utoa@n+2,___lomod@dividend+2
  1767  002284  C0BA  F018         	movff	utoa@n+3,___lomod@dividend+3
  1768  002288  C0BB  F019         	movff	utoa@n+4,___lomod@dividend+4
  1769  00228C  C0BC  F01A         	movff	utoa@n+5,___lomod@dividend+5
  1770  002290  C0BD  F01B         	movff	utoa@n+6,___lomod@dividend+6
  1771  002294  C0BE  F01C         	movff	utoa@n+7,___lomod@dividend+7
  1772  002298  0E0A               	movlw	10
  1773  00229A  6E1D               	movwf	___lomod@divisor^0,c
  1774  00229C  0E00               	movlw	0
  1775  00229E  6E1E               	movwf	(___lomod@divisor+1)^0,c
  1776  0022A0  0E00               	movlw	0
  1777  0022A2  6E1F               	movwf	(___lomod@divisor+2)^0,c
  1778  0022A4  0E00               	movlw	0
  1779  0022A6  6E20               	movwf	(___lomod@divisor+3)^0,c
  1780  0022A8  0E00               	movlw	0
  1781  0022AA  6E21               	movwf	(___lomod@divisor+4)^0,c
  1782  0022AC  0E00               	movlw	0
  1783  0022AE  6E22               	movwf	(___lomod@divisor+5)^0,c
  1784  0022B0  0E00               	movlw	0
  1785  0022B2  6E23               	movwf	(___lomod@divisor+6)^0,c
  1786  0022B4  0E00               	movlw	0
  1787  0022B6  6E24               	movwf	(___lomod@divisor+7)^0,c
  1788  0022B8  ECD8  F014         	call	___lomod	;wreg free
  1789  0022BC  C015  F030         	movff	?___lomod,??_utoa
  1790  0022C0  C016  F031         	movff	?___lomod+1,??_utoa+1
  1791  0022C4  C017  F032         	movff	?___lomod+2,??_utoa+2
  1792  0022C8  C018  F033         	movff	?___lomod+3,??_utoa+3
  1793  0022CC  C019  F034         	movff	?___lomod+4,??_utoa+4
  1794  0022D0  C01A  F035         	movff	?___lomod+5,??_utoa+5
  1795  0022D4  C01B  F036         	movff	?___lomod+6,??_utoa+6
  1796  0022D8  C01C  F037         	movff	?___lomod+7,??_utoa+7
  1797  0022DC  5030               	movf	??_utoa^0,w,c
  1798  0022DE  0F30               	addlw	48
  1799  0022E0  6EDF               	movwf	indf2,c
  1800                           
  1801                           ; BSR set to: 0
  1802                           ;/opt/microchip/xc8/v2.35/pic/sources/c99/common/doprnt.c: 634:         --p;
  1803  0022E2  07B3               	decf	utoa@p& (0+255),f,b
  1804  0022E4  A0D8               	btfss	status,0,c
  1805  0022E6  07B4               	decf	(utoa@p+1)& (0+255),f,b
  1806                           
  1807                           ; BSR set to: 0
  1808                           ;/opt/microchip/xc8/v2.35/pic/sources/c99/common/doprnt.c: 635:         --w;
  1809  0022E8  07B5               	decf	utoa@w& (0+255),f,b
  1810  0022EA  A0D8               	btfss	status,0,c
  1811  0022EC  07B6               	decf	(utoa@w+1)& (0+255),f,b
  1812                           
  1813                           ; BSR set to: 0
  1814                           ;/opt/microchip/xc8/v2.35/pic/sources/c99/common/doprnt.c: 636:         n = n / 10;
  1815  0022EE  C0B7  F015         	movff	utoa@n,___lodiv@dividend
  1816  0022F2  C0B8  F016         	movff	utoa@n+1,___lodiv@dividend+1
  1817  0022F6  C0B9  F017         	movff	utoa@n+2,___lodiv@dividend+2
  1818  0022FA  C0BA  F018         	movff	utoa@n+3,___lodiv@dividend+3
  1819  0022FE  C0BB  F019         	movff	utoa@n+4,___lodiv@dividend+4
  1820  002302  C0BC  F01A         	movff	utoa@n+5,___lodiv@dividend+5
  1821  002306  C0BD  F01B         	movff	utoa@n+6,___lodiv@dividend+6
  1822  00230A  C0BE  F01C         	movff	utoa@n+7,___lodiv@dividend+7
  1823  00230E  0E0A               	movlw	10
  1824  002310  6E1D               	movwf	___lodiv@divisor^0,c
  1825  002312  0E00               	movlw	0
  1826  002314  6E1E               	movwf	(___lodiv@divisor+1)^0,c
  1827  002316  0E00               	movlw	0
  1828  002318  6E1F               	movwf	(___lodiv@divisor+2)^0,c
  1829  00231A  0E00               	movlw	0
  1830  00231C  6E20               	movwf	(___lodiv@divisor+3)^0,c
  1831  00231E  0E00               	movlw	0
  1832  002320  6E21               	movwf	(___lodiv@divisor+4)^0,c
  1833  002322  0E00               	movlw	0
  1834  002324  6E22               	movwf	(___lodiv@divisor+5)^0,c
  1835  002326  0E00               	movlw	0
  1836  002328  6E23               	movwf	(___lodiv@divisor+6)^0,c
  1837  00232A  0E00               	movlw	0
  1838  00232C  6E24               	movwf	(___lodiv@divisor+7)^0,c
  1839  00232E  ECFD  F012         	call	___lodiv	;wreg free
  1840  002332  C015  F0B7         	movff	?___lodiv,utoa@n
  1841  002336  C016  F0B8         	movff	?___lodiv+1,utoa@n+1
  1842  00233A  C017  F0B9         	movff	?___lodiv+2,utoa@n+2
  1843  00233E  C018  F0BA         	movff	?___lodiv+3,utoa@n+3
  1844  002342  C019  F0BB         	movff	?___lodiv+4,utoa@n+4
  1845  002346  C01A  F0BC         	movff	?___lodiv+5,utoa@n+5
  1846  00234A  C01B  F0BD         	movff	?___lodiv+6,utoa@n+6
  1847  00234E  C01C  F0BE         	movff	?___lodiv+7,utoa@n+7
  1848  002352                     l3325:
  1849                           
  1850                           ; BSR set to: 0
  1851                           ;/opt/microchip/xc8/v2.35/pic/sources/c99/common/doprnt.c: 631:     while (i && (n || (0
      +                           < p) || ((0 < w) && (flags & (1 << 1))))) {
  1852  002352  51BF               	movf	utoa@i& (0+255),w,b
  1853  002354  11C0               	iorwf	(utoa@i+1)& (0+255),w,b
  1854  002356  B4D8               	btfsc	status,2,c
  1855  002358  D01A               	goto	u1850
  1856                           
  1857                           ; BSR set to: 0
  1858  00235A  51B7               	movf	utoa@n& (0+255),w,b
  1859  00235C  11B8               	iorwf	(utoa@n+1)& (0+255),w,b
  1860  00235E  11B9               	iorwf	(utoa@n+2)& (0+255),w,b
  1861  002360  11BA               	iorwf	(utoa@n+3)& (0+255),w,b
  1862  002362  11BB               	iorwf	(utoa@n+4)& (0+255),w,b
  1863  002364  11BC               	iorwf	(utoa@n+5)& (0+255),w,b
  1864  002366  11BD               	iorwf	(utoa@n+6)& (0+255),w,b
  1865  002368  11BE               	iorwf	(utoa@n+7)& (0+255),w,b
  1866  00236A  A4D8               	btfss	status,2,c
  1867  00236C  D77E               	goto	l3315
  1868                           
  1869                           ; BSR set to: 0
  1870  00236E  BFB4               	btfsc	(utoa@p+1)& (0+255),7,b
  1871  002370  D005               	goto	u1830
  1872  002372  51B4               	movf	(utoa@p+1)& (0+255),w,b
  1873  002374  E102               	bnz	u1831
  1874  002376  05B3               	decf	utoa@p& (0+255),w,b
  1875  002378  B0D8               	btfsc	status,0,c
  1876  00237A                     u1831:
  1877  00237A  D777               	goto	l3315
  1878  00237C                     u1830:
  1879                           
  1880                           ; BSR set to: 0
  1881  00237C  BFB6               	btfsc	(utoa@w+1)& (0+255),7,b
  1882  00237E  D007               	goto	u1850
  1883  002380  51B6               	movf	(utoa@w+1)& (0+255),w,b
  1884  002382  E103               	bnz	u1840
  1885  002384  05B5               	decf	utoa@w& (0+255),w,b
  1886  002386  A0D8               	btfss	status,0,c
  1887  002388  D002               	goto	u1850
  1888  00238A                     u1840:
  1889                           
  1890                           ; BSR set to: 0
  1891  00238A  B240               	btfsc	_flags^0,1,c
  1892  00238C  D76E               	goto	l3315
  1893  00238E                     u1850:
  1894                           
  1895                           ; BSR set to: 0
  1896                           ;/opt/microchip/xc8/v2.35/pic/sources/c99/common/doprnt.c: 640:     return pad(fp, &dbuf
      +                          [i], w);
  1897  00238E  C0AA  F027         	movff	utoa@fp,pad@fp
  1898  002392  51BF               	movf	utoa@i& (0+255),w,b
  1899  002394  0F8A               	addlw	low _dbuf
  1900  002396  6E28               	movwf	pad@buf^0,c
  1901  002398  C0B5  F029         	movff	utoa@w,pad@p
  1902  00239C  C0B6  F02A         	movff	utoa@w+1,pad@p+1
  1903  0023A0  EC80  F015         	call	_pad	;wreg free
  1904  0023A4  C027  F0AA         	movff	?_pad,?_utoa
  1905  0023A8  C028  F0AB         	movff	?_pad+1,?_utoa+1
  1906  0023AC  0012               	return		;funcret
  1907  0023AE                     __end_of_utoa:
  1908                           	callstack 0
  1909                           
  1910 ;; *************** function _pad *****************
  1911 ;; Defined at:
  1912 ;;		line 72 in file "/opt/microchip/xc8/v2.35/pic/sources/c99/common/doprnt.c"
  1913 ;; Parameters:    Size  Location     Type
  1914 ;;  fp              1   38[COMRAM] PTR struct _IO_FILE
  1915 ;;		 -> sprintf@f(11), 
  1916 ;;  buf             1   39[COMRAM] PTR unsigned char 
  1917 ;;		 -> dbuf(32), 
  1918 ;;  p               2   40[COMRAM] int 
  1919 ;; Auto vars:     Size  Location     Type
  1920 ;;  w               2   45[COMRAM] int 
  1921 ;;  i               2   43[COMRAM] int 
  1922 ;; Return value:  Size  Location     Type
  1923 ;;                  2   38[COMRAM] int 
  1924 ;; Registers used:
  1925 ;;		wreg, fsr1l, fsr1h, fsr2l, fsr2h, status,2, status,0, cstack
  1926 ;; Tracked objects:
  1927 ;;		On entry : 3F/0
  1928 ;;		On exit  : 0/0
  1929 ;;		Unchanged: 0/0
  1930 ;; Data sizes:     COMRAM   BANK0   BANK1   BANK2   BANK3   BANK4   BANK5   BANK6   BANK7   BANK8   BANK9  BANK10  BANK1
      +1  BANK12  BANK13  BANK14  BANK15  BANK16  BANK17  BANK18  BANK19  BANK20  BANK21  BANK22  BANK23  BANK24  BANK25  BANK2
      +6  BANK27  BANK28  BANK29  BANK30  BANK31
  1931 ;;      Params:         4       0       0       0       0       0       0       0       0       0       0       0       
      +0       0       0       0       0       0       0       0       0       0       0       0       0       0       0       
      +0       0       0       0       0       0
  1932 ;;      Locals:         4       0       0       0       0       0       0       0       0       0       0       0       
      +0       0       0       0       0       0       0       0       0       0       0       0       0       0       0       
      +0       0       0       0       0       0
  1933 ;;      Temps:          1       0       0       0       0       0       0       0       0       0       0       0       
      +0       0       0       0       0       0       0       0       0       0       0       0       0       0       0       
      +0       0       0       0       0       0
  1934 ;;      Totals:         9       0       0       0       0       0       0       0       0       0       0       0       
      +0       0       0       0       0       0       0       0       0       0       0       0       0       0       0       
      +0       0       0       0       0       0
  1935 ;;Total ram usage:        9 bytes
  1936 ;; Hardware stack levels used: 1
  1937 ;; Hardware stack levels required when called: 8
  1938 ;; This function calls:
  1939 ;;		_fputc
  1940 ;;		_fputs
  1941 ;;		_strlen
  1942 ;; This function is called by:
  1943 ;;		_utoa
  1944 ;; This function uses a non-reentrant model
  1945 ;;
  1946                           
  1947                           	psect	text5
  1948  002B00                     __ptext5:
  1949                           	callstack 0
  1950  002B00                     _pad:
  1951                           	callstack 18
  1952                           
  1953                           ; BSR set to: 0
  1954                           ;/opt/microchip/xc8/v2.35/pic/sources/c99/common/doprnt.c: 72: static int pad(FILE *fp, 
      +                          char *buf, int p);/opt/microchip/xc8/v2.35/pic/sources/c99/common/doprnt.c: 73: {;/opt/m
      +                          icrochip/xc8/v2.35/pic/sources/c99/common/doprnt.c: 74:     int i, w;;/opt/microchip/xc8
      +                          /v2.35/pic/sources/c99/common/doprnt.c: 77:     if (flags & (1 << 0)) {
  1955                           
  1956                           ;incstack = 0
  1957  002B00  A040               	btfss	_flags^0,0,c
  1958  002B02  D008               	goto	l3269
  1959                           
  1960                           ; BSR set to: 0
  1961                           ;/opt/microchip/xc8/v2.35/pic/sources/c99/common/doprnt.c: 78:         fputs((const char
      +                           *)buf, fp);
  1962  002B04  C028  F020         	movff	pad@buf,fputs@s
  1963  002B08  6A21               	clrf	(fputs@s+1)^0,c
  1964  002B0A  C027  F022         	movff	pad@fp,fputs@fp
  1965  002B0E  6A23               	clrf	(fputs@fp+1)^0,c
  1966  002B10  ECF7  F016         	call	_fputs	;wreg free
  1967  002B14                     l3269:
  1968                           
  1969                           ;/opt/microchip/xc8/v2.35/pic/sources/c99/common/doprnt.c: 82:     w = (p < 0) ? 0 : p;
  1970  002B14  BE2A               	btfsc	(pad@p+1)^0,7,c
  1971  002B16  D005               	goto	l3273
  1972  002B18  C029  F02E         	movff	pad@p,pad@w
  1973  002B1C  C02A  F02F         	movff	pad@p+1,pad@w+1
  1974  002B20  D004               	goto	l1707
  1975  002B22                     l3273:
  1976  002B22  0E00               	movlw	0
  1977  002B24  6E2F               	movwf	(pad@w+1)^0,c
  1978  002B26  0E00               	movlw	0
  1979  002B28  6E2E               	movwf	pad@w^0,c
  1980  002B2A                     l1707:
  1981                           
  1982                           ;/opt/microchip/xc8/v2.35/pic/sources/c99/common/doprnt.c: 83:     i = 0;
  1983  002B2A  0E00               	movlw	0
  1984  002B2C  6E2D               	movwf	(pad@i+1)^0,c
  1985  002B2E  0E00               	movlw	0
  1986  002B30  6E2C               	movwf	pad@i^0,c
  1987                           
  1988                           ;/opt/microchip/xc8/v2.35/pic/sources/c99/common/doprnt.c: 84:     while (i < w) {
  1989  002B32  D00B               	goto	l3279
  1990  002B34                     l3275:
  1991                           
  1992                           ;/opt/microchip/xc8/v2.35/pic/sources/c99/common/doprnt.c: 85:         fputc(' ', fp);
  1993  002B34  0E00               	movlw	0
  1994  002B36  6E18               	movwf	(fputc@c+1)^0,c
  1995  002B38  0E20               	movlw	32
  1996  002B3A  6E17               	movwf	fputc@c^0,c
  1997  002B3C  C027  F019         	movff	pad@fp,fputc@fp
  1998  002B40  6A1A               	clrf	(fputc@fp+1)^0,c
  1999  002B42  EC7E  F014         	call	_fputc	;wreg free
  2000                           
  2001                           ;/opt/microchip/xc8/v2.35/pic/sources/c99/common/doprnt.c: 86:         ++i;
  2002  002B46  4A2C               	infsnz	pad@i^0,f,c
  2003  002B48  2A2D               	incf	(pad@i+1)^0,f,c
  2004  002B4A                     l3279:
  2005                           
  2006                           ;/opt/microchip/xc8/v2.35/pic/sources/c99/common/doprnt.c: 84:     while (i < w) {
  2007  002B4A  502E               	movf	pad@w^0,w,c
  2008  002B4C  5C2C               	subwf	pad@i^0,w,c
  2009  002B4E  502D               	movf	(pad@i+1)^0,w,c
  2010  002B50  0A80               	xorlw	128
  2011  002B52  6E2B               	movwf	??_pad^0,c
  2012  002B54  502F               	movf	(pad@w+1)^0,w,c
  2013  002B56  0A80               	xorlw	128
  2014  002B58  582B               	subwfb	??_pad^0,w,c
  2015  002B5A  A0D8               	btfss	status,0,c
  2016  002B5C  D7EB               	goto	l3275
  2017                           
  2018                           ;/opt/microchip/xc8/v2.35/pic/sources/c99/common/doprnt.c: 90:     if (!(flags & (1 << 0
      +                          ))) {
  2019  002B5E  B040               	btfsc	_flags^0,0,c
  2020  002B60  D008               	goto	l3283
  2021                           
  2022                           ;/opt/microchip/xc8/v2.35/pic/sources/c99/common/doprnt.c: 91:         fputs((const char
      +                           *)buf, fp);
  2023  002B62  C028  F020         	movff	pad@buf,fputs@s
  2024  002B66  6A21               	clrf	(fputs@s+1)^0,c
  2025  002B68  C027  F022         	movff	pad@fp,fputs@fp
  2026  002B6C  6A23               	clrf	(fputs@fp+1)^0,c
  2027  002B6E  ECF7  F016         	call	_fputs	;wreg free
  2028  002B72                     l3283:
  2029                           
  2030                           ;/opt/microchip/xc8/v2.35/pic/sources/c99/common/doprnt.c: 94:     return (int)(strlen(b
      +                          uf) + (size_t)w);
  2031  002B72  C028  F015         	movff	pad@buf,strlen@s
  2032  002B76  EC8D  F018         	call	_strlen	;wreg free
  2033  002B7A  502E               	movf	pad@w^0,w,c
  2034  002B7C  2415               	addwf	?_strlen^0,w,c
  2035  002B7E  6E27               	movwf	?_pad^0,c
  2036  002B80  502F               	movf	(pad@w+1)^0,w,c
  2037  002B82  2016               	addwfc	(?_strlen+1)^0,w,c
  2038  002B84  6E28               	movwf	(?_pad+1)^0,c
  2039  002B86  0012               	return		;funcret
  2040  002B88                     __end_of_pad:
  2041                           	callstack 0
  2042                           
  2043 ;; *************** function _strlen *****************
  2044 ;; Defined at:
  2045 ;;		line 5 in file "/opt/microchip/xc8/v2.35/pic/sources/c99/common/strlen.c"
  2046 ;; Parameters:    Size  Location     Type
  2047 ;;  s               1   20[COMRAM] PTR const unsigned char 
  2048 ;;		 -> dbuf(32), 
  2049 ;; Auto vars:     Size  Location     Type
  2050 ;;  a               1   22[COMRAM] PTR const unsigned char 
  2051 ;;		 -> dbuf(32), 
  2052 ;; Return value:  Size  Location     Type
  2053 ;;                  2   20[COMRAM] unsigned int 
  2054 ;; Registers used:
  2055 ;;		wreg, fsr2l, fsr2h, status,2, status,0
  2056 ;; Tracked objects:
  2057 ;;		On entry : 0/0
  2058 ;;		On exit  : 0/0
  2059 ;;		Unchanged: 0/0
  2060 ;; Data sizes:     COMRAM   BANK0   BANK1   BANK2   BANK3   BANK4   BANK5   BANK6   BANK7   BANK8   BANK9  BANK10  BANK1
      +1  BANK12  BANK13  BANK14  BANK15  BANK16  BANK17  BANK18  BANK19  BANK20  BANK21  BANK22  BANK23  BANK24  BANK25  BANK2
      +6  BANK27  BANK28  BANK29  BANK30  BANK31
  2061 ;;      Params:         2       0       0       0       0       0       0       0       0       0       0       0       
      +0       0       0       0       0       0       0       0       0       0       0       0       0       0       0       
      +0       0       0       0       0       0
  2062 ;;      Locals:         1       0       0       0       0       0       0       0       0       0       0       0       
      +0       0       0       0       0       0       0       0       0       0       0       0       0       0       0       
      +0       0       0       0       0       0
  2063 ;;      Temps:          0       0       0       0       0       0       0       0       0       0       0       0       
      +0       0       0       0       0       0       0       0       0       0       0       0       0       0       0       
      +0       0       0       0       0       0
  2064 ;;      Totals:         3       0       0       0       0       0       0       0       0       0       0       0       
      +0       0       0       0       0       0       0       0       0       0       0       0       0       0       0       
      +0       0       0       0       0       0
  2065 ;;Total ram usage:        3 bytes
  2066 ;; Hardware stack levels used: 1
  2067 ;; Hardware stack levels required when called: 4
  2068 ;; This function calls:
  2069 ;;		Nothing
  2070 ;; This function is called by:
  2071 ;;		_pad
  2072 ;; This function uses a non-reentrant model
  2073 ;;
  2074                           
  2075                           	psect	text6
  2076  00311A                     __ptext6:
  2077                           	callstack 0
  2078  00311A                     _strlen:
  2079                           	callstack 21
  2080                           
  2081                           ;incstack = 0
  2082  00311A  C015  F017         	movff	strlen@s,strlen@a
  2083  00311E  D001               	goto	l3215
  2084  003120                     l3213:
  2085  003120  2A15               	incf	strlen@s^0,f,c
  2086  003122                     l3215:
  2087  003122  5015               	movf	strlen@s^0,w,c
  2088  003124  6ED9               	movwf	fsr2l,c
  2089  003126  6ADA               	clrf	fsr2h,c
  2090  003128  50DF               	movf	indf2,w,c
  2091  00312A  A4D8               	btfss	status,2,c
  2092  00312C  D7F9               	goto	l3213
  2093  00312E  5017               	movf	strlen@a^0,w,c
  2094  003130  5C15               	subwf	strlen@s^0,w,c
  2095  003132  6E15               	movwf	?_strlen^0,c
  2096  003134  6A16               	clrf	(?_strlen+1)^0,c
  2097  003136  BE15               	btfsc	?_strlen^0,7,c
  2098  003138  0616               	decf	(?_strlen+1)^0,f,c
  2099  00313A  0012               	return		;funcret
  2100  00313C                     __end_of_strlen:
  2101                           	callstack 0
  2102                           
  2103 ;; *************** function ___lomod *****************
  2104 ;; Defined at:
  2105 ;;		line 9 in file "/opt/microchip/xc8/v2.35/pic/sources/c99/common/lomod.c"
  2106 ;; Parameters:    Size  Location     Type
  2107 ;;  dividend        8   20[COMRAM] unsigned long long 
  2108 ;;  divisor         8   28[COMRAM] unsigned long long 
  2109 ;; Auto vars:     Size  Location     Type
  2110 ;;  counter         1   36[COMRAM] unsigned char 
  2111 ;; Return value:  Size  Location     Type
  2112 ;;                  8   20[COMRAM] unsigned long long 
  2113 ;; Registers used:
  2114 ;;		wreg, status,2, status,0
  2115 ;; Tracked objects:
  2116 ;;		On entry : 3F/0
  2117 ;;		On exit  : 3F/0
  2118 ;;		Unchanged: 3F/0
  2119 ;; Data sizes:     COMRAM   BANK0   BANK1   BANK2   BANK3   BANK4   BANK5   BANK6   BANK7   BANK8   BANK9  BANK10  BANK1
      +1  BANK12  BANK13  BANK14  BANK15  BANK16  BANK17  BANK18  BANK19  BANK20  BANK21  BANK22  BANK23  BANK24  BANK25  BANK2
      +6  BANK27  BANK28  BANK29  BANK30  BANK31
  2120 ;;      Params:        16       0       0       0       0       0       0       0       0       0       0       0       
      +0       0       0       0       0       0       0       0       0       0       0       0       0       0       0       
      +0       0       0       0       0       0
  2121 ;;      Locals:         1       0       0       0       0       0       0       0       0       0       0       0       
      +0       0       0       0       0       0       0       0       0       0       0       0       0       0       0       
      +0       0       0       0       0       0
  2122 ;;      Temps:          0       0       0       0       0       0       0       0       0       0       0       0       
      +0       0       0       0       0       0       0       0       0       0       0       0       0       0       0       
      +0       0       0       0       0       0
  2123 ;;      Totals:        17       0       0       0       0       0       0       0       0       0       0       0       
      +0       0       0       0       0       0       0       0       0       0       0       0       0       0       0       
      +0       0       0       0       0       0
  2124 ;;Total ram usage:       17 bytes
  2125 ;; Hardware stack levels used: 1
  2126 ;; Hardware stack levels required when called: 4
  2127 ;; This function calls:
  2128 ;;		Nothing
  2129 ;; This function is called by:
  2130 ;;		_utoa
  2131 ;; This function uses a non-reentrant model
  2132 ;;
  2133                           
  2134                           	psect	text7
  2135  0029B0                     __ptext7:
  2136                           	callstack 0
  2137  0029B0                     ___lomod:
  2138                           	callstack 22
  2139                           
  2140                           ; BSR set to: 0
  2141                           
  2142                           ;incstack = 0
  2143  0029B0  501D               	movf	___lomod@divisor^0,w,c
  2144  0029B2  101E               	iorwf	(___lomod@divisor+1)^0,w,c
  2145  0029B4  101F               	iorwf	(___lomod@divisor+2)^0,w,c
  2146  0029B6  1020               	iorwf	(___lomod@divisor+3)^0,w,c
  2147  0029B8  1021               	iorwf	(___lomod@divisor+4)^0,w,c
  2148  0029BA  1022               	iorwf	(___lomod@divisor+5)^0,w,c
  2149  0029BC  1023               	iorwf	(___lomod@divisor+6)^0,w,c
  2150  0029BE  1024               	iorwf	(___lomod@divisor+7)^0,w,c
  2151  0029C0  B4D8               	btfsc	status,2,c
  2152  0029C2  D03C               	goto	l1448
  2153                           
  2154                           ; BSR set to: 0
  2155  0029C4  0E01               	movlw	1
  2156  0029C6  6E25               	movwf	___lomod@counter^0,c
  2157  0029C8  D00A               	goto	l3255
  2158  0029CA                     l3253:
  2159                           
  2160                           ; BSR set to: 0
  2161  0029CA  90D8               	bcf	status,0,c
  2162  0029CC  361D               	rlcf	___lomod@divisor^0,f,c
  2163  0029CE  361E               	rlcf	(___lomod@divisor+1)^0,f,c
  2164  0029D0  361F               	rlcf	(___lomod@divisor+2)^0,f,c
  2165  0029D2  3620               	rlcf	(___lomod@divisor+3)^0,f,c
  2166  0029D4  3621               	rlcf	(___lomod@divisor+4)^0,f,c
  2167  0029D6  3622               	rlcf	(___lomod@divisor+5)^0,f,c
  2168  0029D8  3623               	rlcf	(___lomod@divisor+6)^0,f,c
  2169  0029DA  3624               	rlcf	(___lomod@divisor+7)^0,f,c
  2170  0029DC  2A25               	incf	___lomod@counter^0,f,c
  2171  0029DE                     l3255:
  2172                           
  2173                           ; BSR set to: 0
  2174  0029DE  AE24               	btfss	(___lomod@divisor+7)^0,7,c
  2175  0029E0  D7F4               	goto	l3253
  2176  0029E2                     u1690:
  2177                           
  2178                           ; BSR set to: 0
  2179  0029E2  501D               	movf	___lomod@divisor^0,w,c
  2180  0029E4  5C15               	subwf	___lomod@dividend^0,w,c
  2181  0029E6  501E               	movf	(___lomod@divisor+1)^0,w,c
  2182  0029E8  5816               	subwfb	(___lomod@dividend+1)^0,w,c
  2183  0029EA  501F               	movf	(___lomod@divisor+2)^0,w,c
  2184  0029EC  5817               	subwfb	(___lomod@dividend+2)^0,w,c
  2185  0029EE  5020               	movf	(___lomod@divisor+3)^0,w,c
  2186  0029F0  5818               	subwfb	(___lomod@dividend+3)^0,w,c
  2187  0029F2  5021               	movf	(___lomod@divisor+4)^0,w,c
  2188  0029F4  5819               	subwfb	(___lomod@dividend+4)^0,w,c
  2189  0029F6  5022               	movf	(___lomod@divisor+5)^0,w,c
  2190  0029F8  581A               	subwfb	(___lomod@dividend+5)^0,w,c
  2191  0029FA  5023               	movf	(___lomod@divisor+6)^0,w,c
  2192  0029FC  581B               	subwfb	(___lomod@dividend+6)^0,w,c
  2193  0029FE  5024               	movf	(___lomod@divisor+7)^0,w,c
  2194  002A00  581C               	subwfb	(___lomod@dividend+7)^0,w,c
  2195  002A02  A0D8               	btfss	status,0,c
  2196  002A04  D010               	goto	l3261
  2197                           
  2198                           ; BSR set to: 0
  2199  002A06  501D               	movf	___lomod@divisor^0,w,c
  2200  002A08  5E15               	subwf	___lomod@dividend^0,f,c
  2201  002A0A  501E               	movf	(___lomod@divisor+1)^0,w,c
  2202  002A0C  5A16               	subwfb	(___lomod@dividend+1)^0,f,c
  2203  002A0E  501F               	movf	(___lomod@divisor+2)^0,w,c
  2204  002A10  5A17               	subwfb	(___lomod@dividend+2)^0,f,c
  2205  002A12  5020               	movf	(___lomod@divisor+3)^0,w,c
  2206  002A14  5A18               	subwfb	(___lomod@dividend+3)^0,f,c
  2207  002A16  5021               	movf	(___lomod@divisor+4)^0,w,c
  2208  002A18  5A19               	subwfb	(___lomod@dividend+4)^0,f,c
  2209  002A1A  5022               	movf	(___lomod@divisor+5)^0,w,c
  2210  002A1C  5A1A               	subwfb	(___lomod@dividend+5)^0,f,c
  2211  002A1E  5023               	movf	(___lomod@divisor+6)^0,w,c
  2212  002A20  5A1B               	subwfb	(___lomod@dividend+6)^0,f,c
  2213  002A22  5024               	movf	(___lomod@divisor+7)^0,w,c
  2214  002A24  5A1C               	subwfb	(___lomod@dividend+7)^0,f,c
  2215  002A26                     l3261:
  2216                           
  2217                           ; BSR set to: 0
  2218  002A26  90D8               	bcf	status,0,c
  2219  002A28  3224               	rrcf	(___lomod@divisor+7)^0,f,c
  2220  002A2A  3223               	rrcf	(___lomod@divisor+6)^0,f,c
  2221  002A2C  3222               	rrcf	(___lomod@divisor+5)^0,f,c
  2222  002A2E  3221               	rrcf	(___lomod@divisor+4)^0,f,c
  2223  002A30  3220               	rrcf	(___lomod@divisor+3)^0,f,c
  2224  002A32  321F               	rrcf	(___lomod@divisor+2)^0,f,c
  2225  002A34  321E               	rrcf	(___lomod@divisor+1)^0,f,c
  2226  002A36  321D               	rrcf	___lomod@divisor^0,f,c
  2227                           
  2228                           ; BSR set to: 0
  2229  002A38  2E25               	decfsz	___lomod@counter^0,f,c
  2230  002A3A  D7D3               	goto	u1690
  2231  002A3C                     l1448:
  2232                           
  2233                           ; BSR set to: 0
  2234  002A3C  C015  F015         	movff	___lomod@dividend,?___lomod
  2235  002A40  C016  F016         	movff	___lomod@dividend+1,?___lomod+1
  2236  002A44  C017  F017         	movff	___lomod@dividend+2,?___lomod+2
  2237  002A48  C018  F018         	movff	___lomod@dividend+3,?___lomod+3
  2238  002A4C  C019  F019         	movff	___lomod@dividend+4,?___lomod+4
  2239  002A50  C01A  F01A         	movff	___lomod@dividend+5,?___lomod+5
  2240  002A54  C01B  F01B         	movff	___lomod@dividend+6,?___lomod+6
  2241  002A58  C01C  F01C         	movff	___lomod@dividend+7,?___lomod+7
  2242                           
  2243                           ; BSR set to: 0
  2244  002A5C  0012               	return		;funcret
  2245  002A5E                     __end_of___lomod:
  2246                           	callstack 0
  2247                           
  2248 ;; *************** function ___lodiv *****************
  2249 ;; Defined at:
  2250 ;;		line 9 in file "/opt/microchip/xc8/v2.35/pic/sources/c99/common/lodiv.c"
  2251 ;; Parameters:    Size  Location     Type
  2252 ;;  dividend        8   20[COMRAM] unsigned long long 
  2253 ;;  divisor         8   28[COMRAM] unsigned long long 
  2254 ;; Auto vars:     Size  Location     Type
  2255 ;;  quotient        8   36[COMRAM] unsigned long long 
  2256 ;;  counter         1   44[COMRAM] unsigned char 
  2257 ;; Return value:  Size  Location     Type
  2258 ;;                  8   20[COMRAM] unsigned long long 
  2259 ;; Registers used:
  2260 ;;		wreg, fsr2l, fsr2h, status,2, status,0
  2261 ;; Tracked objects:
  2262 ;;		On entry : 3F/0
  2263 ;;		On exit  : 3F/0
  2264 ;;		Unchanged: 3F/0
  2265 ;; Data sizes:     COMRAM   BANK0   BANK1   BANK2   BANK3   BANK4   BANK5   BANK6   BANK7   BANK8   BANK9  BANK10  BANK1
      +1  BANK12  BANK13  BANK14  BANK15  BANK16  BANK17  BANK18  BANK19  BANK20  BANK21  BANK22  BANK23  BANK24  BANK25  BANK2
      +6  BANK27  BANK28  BANK29  BANK30  BANK31
  2266 ;;      Params:        16       0       0       0       0       0       0       0       0       0       0       0       
      +0       0       0       0       0       0       0       0       0       0       0       0       0       0       0       
      +0       0       0       0       0       0
  2267 ;;      Locals:         9       0       0       0       0       0       0       0       0       0       0       0       
      +0       0       0       0       0       0       0       0       0       0       0       0       0       0       0       
      +0       0       0       0       0       0
  2268 ;;      Temps:          0       0       0       0       0       0       0       0       0       0       0       0       
      +0       0       0       0       0       0       0       0       0       0       0       0       0       0       0       
      +0       0       0       0       0       0
  2269 ;;      Totals:        25       0       0       0       0       0       0       0       0       0       0       0       
      +0       0       0       0       0       0       0       0       0       0       0       0       0       0       0       
      +0       0       0       0       0       0
  2270 ;;Total ram usage:       25 bytes
  2271 ;; Hardware stack levels used: 1
  2272 ;; Hardware stack levels required when called: 4
  2273 ;; This function calls:
  2274 ;;		Nothing
  2275 ;; This function is called by:
  2276 ;;		_utoa
  2277 ;; This function uses a non-reentrant model
  2278 ;;
  2279                           
  2280                           	psect	text8
  2281  0025FA                     __ptext8:
  2282                           	callstack 0
  2283  0025FA                     ___lodiv:
  2284                           	callstack 22
  2285                           
  2286                           ; BSR set to: 0
  2287                           
  2288                           ; BSR set to: 0
  2289                           ;incstack = 0
  2290  0025FA  EE20  F025         	lfsr	2,___lodiv@quotient
  2291  0025FE  0E07               	movlw	7
  2292  002600                     u1641:
  2293  002600  6ADE               	clrf	postinc2,c
  2294  002602  06E8               	decf	wreg,f,c
  2295  002604  E2FD               	bc	u1641
  2296                           
  2297                           ; BSR set to: 0
  2298  002606  501D               	movf	___lodiv@divisor^0,w,c
  2299  002608  101E               	iorwf	(___lodiv@divisor+1)^0,w,c
  2300  00260A  101F               	iorwf	(___lodiv@divisor+2)^0,w,c
  2301  00260C  1020               	iorwf	(___lodiv@divisor+3)^0,w,c
  2302  00260E  1021               	iorwf	(___lodiv@divisor+4)^0,w,c
  2303  002610  1022               	iorwf	(___lodiv@divisor+5)^0,w,c
  2304  002612  1023               	iorwf	(___lodiv@divisor+6)^0,w,c
  2305  002614  1024               	iorwf	(___lodiv@divisor+7)^0,w,c
  2306  002616  B4D8               	btfsc	status,2,c
  2307  002618  D046               	goto	l1438
  2308                           
  2309                           ; BSR set to: 0
  2310  00261A  0E01               	movlw	1
  2311  00261C  6E2D               	movwf	___lodiv@counter^0,c
  2312  00261E  D00A               	goto	l3235
  2313  002620                     l3233:
  2314                           
  2315                           ; BSR set to: 0
  2316  002620  90D8               	bcf	status,0,c
  2317  002622  361D               	rlcf	___lodiv@divisor^0,f,c
  2318  002624  361E               	rlcf	(___lodiv@divisor+1)^0,f,c
  2319  002626  361F               	rlcf	(___lodiv@divisor+2)^0,f,c
  2320  002628  3620               	rlcf	(___lodiv@divisor+3)^0,f,c
  2321  00262A  3621               	rlcf	(___lodiv@divisor+4)^0,f,c
  2322  00262C  3622               	rlcf	(___lodiv@divisor+5)^0,f,c
  2323  00262E  3623               	rlcf	(___lodiv@divisor+6)^0,f,c
  2324  002630  3624               	rlcf	(___lodiv@divisor+7)^0,f,c
  2325  002632  2A2D               	incf	___lodiv@counter^0,f,c
  2326  002634                     l3235:
  2327                           
  2328                           ; BSR set to: 0
  2329  002634  AE24               	btfss	(___lodiv@divisor+7)^0,7,c
  2330  002636  D7F4               	goto	l3233
  2331  002638                     u1660:
  2332                           
  2333                           ; BSR set to: 0
  2334  002638  90D8               	bcf	status,0,c
  2335  00263A  3625               	rlcf	___lodiv@quotient^0,f,c
  2336  00263C  3626               	rlcf	(___lodiv@quotient+1)^0,f,c
  2337  00263E  3627               	rlcf	(___lodiv@quotient+2)^0,f,c
  2338  002640  3628               	rlcf	(___lodiv@quotient+3)^0,f,c
  2339  002642  3629               	rlcf	(___lodiv@quotient+4)^0,f,c
  2340  002644  362A               	rlcf	(___lodiv@quotient+5)^0,f,c
  2341  002646  362B               	rlcf	(___lodiv@quotient+6)^0,f,c
  2342  002648  362C               	rlcf	(___lodiv@quotient+7)^0,f,c
  2343                           
  2344                           ; BSR set to: 0
  2345  00264A  501D               	movf	___lodiv@divisor^0,w,c
  2346  00264C  5C15               	subwf	___lodiv@dividend^0,w,c
  2347  00264E  501E               	movf	(___lodiv@divisor+1)^0,w,c
  2348  002650  5816               	subwfb	(___lodiv@dividend+1)^0,w,c
  2349  002652  501F               	movf	(___lodiv@divisor+2)^0,w,c
  2350  002654  5817               	subwfb	(___lodiv@dividend+2)^0,w,c
  2351  002656  5020               	movf	(___lodiv@divisor+3)^0,w,c
  2352  002658  5818               	subwfb	(___lodiv@dividend+3)^0,w,c
  2353  00265A  5021               	movf	(___lodiv@divisor+4)^0,w,c
  2354  00265C  5819               	subwfb	(___lodiv@dividend+4)^0,w,c
  2355  00265E  5022               	movf	(___lodiv@divisor+5)^0,w,c
  2356  002660  581A               	subwfb	(___lodiv@dividend+5)^0,w,c
  2357  002662  5023               	movf	(___lodiv@divisor+6)^0,w,c
  2358  002664  581B               	subwfb	(___lodiv@dividend+6)^0,w,c
  2359  002666  5024               	movf	(___lodiv@divisor+7)^0,w,c
  2360  002668  581C               	subwfb	(___lodiv@dividend+7)^0,w,c
  2361  00266A  A0D8               	btfss	status,0,c
  2362  00266C  D011               	goto	l3245
  2363                           
  2364                           ; BSR set to: 0
  2365  00266E  501D               	movf	___lodiv@divisor^0,w,c
  2366  002670  5E15               	subwf	___lodiv@dividend^0,f,c
  2367  002672  501E               	movf	(___lodiv@divisor+1)^0,w,c
  2368  002674  5A16               	subwfb	(___lodiv@dividend+1)^0,f,c
  2369  002676  501F               	movf	(___lodiv@divisor+2)^0,w,c
  2370  002678  5A17               	subwfb	(___lodiv@dividend+2)^0,f,c
  2371  00267A  5020               	movf	(___lodiv@divisor+3)^0,w,c
  2372  00267C  5A18               	subwfb	(___lodiv@dividend+3)^0,f,c
  2373  00267E  5021               	movf	(___lodiv@divisor+4)^0,w,c
  2374  002680  5A19               	subwfb	(___lodiv@dividend+4)^0,f,c
  2375  002682  5022               	movf	(___lodiv@divisor+5)^0,w,c
  2376  002684  5A1A               	subwfb	(___lodiv@dividend+5)^0,f,c
  2377  002686  5023               	movf	(___lodiv@divisor+6)^0,w,c
  2378  002688  5A1B               	subwfb	(___lodiv@dividend+6)^0,f,c
  2379  00268A  5024               	movf	(___lodiv@divisor+7)^0,w,c
  2380  00268C  5A1C               	subwfb	(___lodiv@dividend+7)^0,f,c
  2381                           
  2382                           ; BSR set to: 0
  2383  00268E  8025               	bsf	___lodiv@quotient^0,0,c
  2384  002690                     l3245:
  2385                           
  2386                           ; BSR set to: 0
  2387  002690  90D8               	bcf	status,0,c
  2388  002692  3224               	rrcf	(___lodiv@divisor+7)^0,f,c
  2389  002694  3223               	rrcf	(___lodiv@divisor+6)^0,f,c
  2390  002696  3222               	rrcf	(___lodiv@divisor+5)^0,f,c
  2391  002698  3221               	rrcf	(___lodiv@divisor+4)^0,f,c
  2392  00269A  3220               	rrcf	(___lodiv@divisor+3)^0,f,c
  2393  00269C  321F               	rrcf	(___lodiv@divisor+2)^0,f,c
  2394  00269E  321E               	rrcf	(___lodiv@divisor+1)^0,f,c
  2395  0026A0  321D               	rrcf	___lodiv@divisor^0,f,c
  2396                           
  2397                           ; BSR set to: 0
  2398  0026A2  2E2D               	decfsz	___lodiv@counter^0,f,c
  2399  0026A4  D7C9               	goto	u1660
  2400  0026A6                     l1438:
  2401                           
  2402                           ; BSR set to: 0
  2403  0026A6  C025  F015         	movff	___lodiv@quotient,?___lodiv
  2404  0026AA  C026  F016         	movff	___lodiv@quotient+1,?___lodiv+1
  2405  0026AE  C027  F017         	movff	___lodiv@quotient+2,?___lodiv+2
  2406  0026B2  C028  F018         	movff	___lodiv@quotient+3,?___lodiv+3
  2407  0026B6  C029  F019         	movff	___lodiv@quotient+4,?___lodiv+4
  2408  0026BA  C02A  F01A         	movff	___lodiv@quotient+5,?___lodiv+5
  2409  0026BE  C02B  F01B         	movff	___lodiv@quotient+6,?___lodiv+6
  2410  0026C2  C02C  F01C         	movff	___lodiv@quotient+7,?___lodiv+7
  2411                           
  2412                           ; BSR set to: 0
  2413  0026C6  0012               	return		;funcret
  2414  0026C8                     __end_of___lodiv:
  2415                           	callstack 0
  2416                           
  2417 ;; *************** function _atoi *****************
  2418 ;; Defined at:
  2419 ;;		line 4 in file "/opt/microchip/xc8/v2.35/pic/sources/c99/common/atoi.c"
  2420 ;; Parameters:    Size  Location     Type
  2421 ;;  s               1   27[COMRAM] PTR const unsigned char 
  2422 ;;		 -> STR_1(19), 
  2423 ;; Auto vars:     Size  Location     Type
  2424 ;;  n               2   35[COMRAM] int 
  2425 ;;  neg             2   33[COMRAM] int 
  2426 ;; Return value:  Size  Location     Type
  2427 ;;                  2   27[COMRAM] int 
  2428 ;; Registers used:
  2429 ;;		wreg, status,2, status,0, tblptrl, tblptrh, tblptru, prodl, prodh, cstack
  2430 ;; Tracked objects:
  2431 ;;		On entry : 3F/0
  2432 ;;		On exit  : 0/0
  2433 ;;		Unchanged: 0/0
  2434 ;; Data sizes:     COMRAM   BANK0   BANK1   BANK2   BANK3   BANK4   BANK5   BANK6   BANK7   BANK8   BANK9  BANK10  BANK1
      +1  BANK12  BANK13  BANK14  BANK15  BANK16  BANK17  BANK18  BANK19  BANK20  BANK21  BANK22  BANK23  BANK24  BANK25  BANK2
      +6  BANK27  BANK28  BANK29  BANK30  BANK31
  2435 ;;      Params:         2       0       0       0       0       0       0       0       0       0       0       0       
      +0       0       0       0       0       0       0       0       0       0       0       0       0       0       0       
      +0       0       0       0       0       0
  2436 ;;      Locals:         4       0       0       0       0       0       0       0       0       0       0       0       
      +0       0       0       0       0       0       0       0       0       0       0       0       0       0       0       
      +0       0       0       0       0       0
  2437 ;;      Temps:          4       0       0       0       0       0       0       0       0       0       0       0       
      +0       0       0       0       0       0       0       0       0       0       0       0       0       0       0       
      +0       0       0       0       0       0
  2438 ;;      Totals:        10       0       0       0       0       0       0       0       0       0       0       0       
      +0       0       0       0       0       0       0       0       0       0       0       0       0       0       0       
      +0       0       0       0       0       0
  2439 ;;Total ram usage:       10 bytes
  2440 ;; Hardware stack levels used: 1
  2441 ;; Hardware stack levels required when called: 5
  2442 ;; This function calls:
  2443 ;;		___wmul
  2444 ;;		_isdigit
  2445 ;;		_isspace
  2446 ;; This function is called by:
  2447 ;;		_vfpfcnvrt
  2448 ;; This function uses a non-reentrant model
  2449 ;;
  2450                           
  2451                           	psect	text9
  2452  0023AE                     __ptext9:
  2453                           	callstack 0
  2454  0023AE                     _atoi:
  2455                           	callstack 22
  2456                           
  2457                           ; BSR set to: 0
  2458                           
  2459                           ; BSR set to: 0
  2460                           ;incstack = 0
  2461  0023AE  0E00               	movlw	0
  2462  0023B0  6E25               	movwf	(atoi@n+1)^0,c
  2463  0023B2  0E00               	movlw	0
  2464  0023B4  6E24               	movwf	atoi@n^0,c
  2465  0023B6  0E00               	movlw	0
  2466  0023B8  6E23               	movwf	(atoi@neg+1)^0,c
  2467  0023BA  0E00               	movlw	0
  2468  0023BC  6E22               	movwf	atoi@neg^0,c
  2469  0023BE  D001               	goto	l3345
  2470  0023C0                     l3341:
  2471                           
  2472                           ; BSR set to: 0
  2473  0023C0  2A1C               	incf	atoi@s^0,f,c
  2474  0023C2                     l3345:
  2475                           
  2476                           ; BSR set to: 0
  2477  0023C2  0060  F073  FFF6   	movff	atoi@s,tblptrl
  2478  0023C8                     	if	1	;There is more than 1 active tblptr byte
  2479  0023C8  0E20               	movlw	high __smallconst
  2480  0023CA  6EF7               	movwf	tblptrh,c
  2481  0023CC                     	endif
  2482  0023CC                     	if	0	;tblptru may be non-zero
  2483  0023CC                     	endif
  2484  0023CC                     	if	1	;Program memory is > 0xFFFF, there are 3 active tblptr bytes
  2485  0023CC  0E00               	movlw	low (__smallconst shr (0+16))
  2486  0023CE  6EF8               	movwf	tblptru,c
  2487  0023D0                     	endif
  2488  0023D0  0008               	tblrd		*
  2489  0023D2  50F5               	movf	tablat,w,c
  2490  0023D4  0A20               	xorlw	32
  2491  0023D6  B4D8               	btfsc	status,2,c
  2492  0023D8  D7F3               	goto	l3341
  2493                           
  2494                           ; BSR set to: 0
  2495  0023DA  0EF7               	movlw	247
  2496  0023DC  6E1E               	movwf	??_atoi^0,c
  2497  0023DE  0EFF               	movlw	255
  2498  0023E0  6E1F               	movwf	(??_atoi+1)^0,c
  2499  0023E2  0060  F073  FFF6   	movff	atoi@s,tblptrl
  2500  0023E8                     	if	1	;There is more than 1 active tblptr byte
  2501  0023E8  0E20               	movlw	high __smallconst
  2502  0023EA  6EF7               	movwf	tblptrh,c
  2503  0023EC                     	endif
  2504  0023EC                     	if	0	;tblptru may be non-zero
  2505  0023EC                     	endif
  2506  0023EC                     	if	1	;Program memory is > 0xFFFF, there are 3 active tblptr bytes
  2507  0023EC  0E00               	movlw	low (__smallconst shr (0+16))
  2508  0023EE  6EF8               	movwf	tblptru,c
  2509  0023F0                     	endif
  2510  0023F0  0008               	tblrd		*
  2511  0023F2  50F5               	movf	tablat,w,c
  2512  0023F4  6E20               	movwf	(??_atoi+2)^0,c
  2513  0023F6  6A21               	clrf	(??_atoi+3)^0,c
  2514  0023F8  501E               	movf	??_atoi^0,w,c
  2515  0023FA  2620               	addwf	(??_atoi+2)^0,f,c
  2516  0023FC  501F               	movf	(??_atoi+1)^0,w,c
  2517  0023FE  2221               	addwfc	(??_atoi+3)^0,f,c
  2518  002400  5021               	movf	(??_atoi+3)^0,w,c
  2519  002402  E10B               	bnz	l3353
  2520  002404  0E05               	movlw	5
  2521  002406  5C20               	subwf	(??_atoi+2)^0,w,c
  2522  002408  B0D8               	btfsc	status,0,c
  2523  00240A  D007               	goto	l3353
  2524  00240C  D7D9               	goto	l3341
  2525  00240E                     l3349:
  2526                           
  2527                           ; BSR set to: 0
  2528  00240E  0E00               	movlw	0
  2529  002410  6E23               	movwf	(atoi@neg+1)^0,c
  2530  002412  0E01               	movlw	1
  2531  002414  6E22               	movwf	atoi@neg^0,c
  2532  002416                     l3351:
  2533  002416  2A1C               	incf	atoi@s^0,f,c
  2534  002418  D034               	goto	l3361
  2535  00241A                     l3353:
  2536                           
  2537                           ; BSR set to: 0
  2538  00241A  0060  F073  FFF6   	movff	atoi@s,tblptrl
  2539  002420                     	if	1	;There is more than 1 active tblptr byte
  2540  002420  0E20               	movlw	high __smallconst
  2541  002422  6EF7               	movwf	tblptrh,c
  2542  002424                     	endif
  2543  002424                     	if	0	;tblptru may be non-zero
  2544  002424                     	endif
  2545  002424                     	if	1	;Program memory is > 0xFFFF, there are 3 active tblptr bytes
  2546  002424  0E00               	movlw	low (__smallconst shr (0+16))
  2547  002426  6EF8               	movwf	tblptru,c
  2548  002428                     	endif
  2549  002428  0008               	tblrd		*
  2550  00242A  50F5               	movf	tablat,w,c
  2551  00242C  6E1E               	movwf	??_atoi^0,c
  2552  00242E  6A1F               	clrf	(??_atoi+1)^0,c
  2553                           
  2554                           ; Switch on 2 bytes has been partitioned into a top level switch of size 1, and 1 sub-sw
      +                          itches
  2555                           ; Switch size 1, requested type "simple"
  2556                           ; Number of cases is 1, Range of values is 0 to 0
  2557                           ; switch strategies available:
  2558                           ; Name         Instructions Cycles
  2559                           ; simple_byte            4     3 (average)
  2560                           ;	Chosen strategy is simple_byte
  2561  002430  501F               	movf	(??_atoi+1)^0,w,c
  2562  002432  0A00               	xorlw	0	; case 0
  2563  002434  A4D8               	btfss	status,2,c
  2564  002436  D025               	goto	l3361
  2565                           
  2566                           ; BSR set to: 0
  2567                           ; Switch size 1, requested type "simple"
  2568                           ; Number of cases is 2, Range of values is 43 to 45
  2569                           ; switch strategies available:
  2570                           ; Name         Instructions Cycles
  2571                           ; simple_byte            7     4 (average)
  2572                           ;	Chosen strategy is simple_byte
  2573  002438  501E               	movf	??_atoi^0,w,c
  2574  00243A  0A2B               	xorlw	43	; case 43
  2575  00243C  B4D8               	btfsc	status,2,c
  2576  00243E  D7EB               	goto	l3351
  2577  002440  0A06               	xorlw	6	; case 45
  2578  002442  B4D8               	btfsc	status,2,c
  2579  002444  D7E4               	goto	l3349
  2580  002446  D01D               	goto	l3361
  2581  002448                     l3355:
  2582  002448  C024  F015         	movff	atoi@n,___wmul@multiplier
  2583  00244C  C025  F016         	movff	atoi@n+1,___wmul@multiplier+1
  2584  002450  0E00               	movlw	0
  2585  002452  6E18               	movwf	(___wmul@multiplicand+1)^0,c
  2586  002454  0E0A               	movlw	10
  2587  002456  6E17               	movwf	___wmul@multiplicand^0,c
  2588  002458  EC51  F018         	call	___wmul	;wreg free
  2589  00245C  0060  F073  FFF6   	movff	atoi@s,tblptrl
  2590  002462                     	if	1	;There is more than 1 active tblptr byte
  2591  002462  0E20               	movlw	high __smallconst
  2592  002464  6EF7               	movwf	tblptrh,c
  2593  002466                     	endif
  2594  002466                     	if	0	;tblptru may be non-zero
  2595  002466                     	endif
  2596  002466                     	if	1	;Program memory is > 0xFFFF, there are 3 active tblptr bytes
  2597  002466  0E00               	movlw	low (__smallconst shr (0+16))
  2598  002468  6EF8               	movwf	tblptru,c
  2599  00246A                     	endif
  2600  00246A  0008               	tblrd		*
  2601  00246C  50F5               	movf	tablat,w,c
  2602  00246E  5E15               	subwf	?___wmul^0,f,c
  2603  002470  0E00               	movlw	0
  2604  002472  5A16               	subwfb	(?___wmul+1)^0,f,c
  2605  002474  0E30               	movlw	48
  2606  002476  2415               	addwf	?___wmul^0,w,c
  2607  002478  6E24               	movwf	atoi@n^0,c
  2608  00247A  0E00               	movlw	0
  2609  00247C  2016               	addwfc	(?___wmul+1)^0,w,c
  2610  00247E  6E25               	movwf	(atoi@n+1)^0,c
  2611  002480  D7CA               	goto	l3351
  2612  002482                     l3361:
  2613  002482  0ED0               	movlw	208
  2614  002484  6E1E               	movwf	??_atoi^0,c
  2615  002486  0EFF               	movlw	255
  2616  002488  6E1F               	movwf	(??_atoi+1)^0,c
  2617  00248A  0060  F073  FFF6   	movff	atoi@s,tblptrl
  2618  002490                     	if	1	;There is more than 1 active tblptr byte
  2619  002490  0E20               	movlw	high __smallconst
  2620  002492  6EF7               	movwf	tblptrh,c
  2621  002494                     	endif
  2622  002494                     	if	0	;tblptru may be non-zero
  2623  002494                     	endif
  2624  002494                     	if	1	;Program memory is > 0xFFFF, there are 3 active tblptr bytes
  2625  002494  0E00               	movlw	low (__smallconst shr (0+16))
  2626  002496  6EF8               	movwf	tblptru,c
  2627  002498                     	endif
  2628  002498  0008               	tblrd		*
  2629  00249A  50F5               	movf	tablat,w,c
  2630  00249C  6E20               	movwf	(??_atoi+2)^0,c
  2631  00249E  6A21               	clrf	(??_atoi+3)^0,c
  2632  0024A0  501E               	movf	??_atoi^0,w,c
  2633  0024A2  2620               	addwf	(??_atoi+2)^0,f,c
  2634  0024A4  501F               	movf	(??_atoi+1)^0,w,c
  2635  0024A6  2221               	addwfc	(??_atoi+3)^0,f,c
  2636  0024A8  5021               	movf	(??_atoi+3)^0,w,c
  2637  0024AA  E104               	bnz	u1880
  2638  0024AC  0E0A               	movlw	10
  2639  0024AE  5C20               	subwf	(??_atoi+2)^0,w,c
  2640  0024B0  A0D8               	btfss	status,0,c
  2641  0024B2  D7CA               	goto	l3355
  2642  0024B4                     u1880:
  2643  0024B4  5022               	movf	atoi@neg^0,w,c
  2644  0024B6  1023               	iorwf	(atoi@neg+1)^0,w,c
  2645  0024B8  A4D8               	btfss	status,2,c
  2646  0024BA  D00D               	goto	l1769
  2647  0024BC  C024  F01E         	movff	atoi@n,??_atoi
  2648  0024C0  C025  F01F         	movff	atoi@n+1,??_atoi+1
  2649  0024C4  1E1E               	comf	??_atoi^0,f,c
  2650  0024C6  1E1F               	comf	(??_atoi+1)^0,f,c
  2651  0024C8  4A1E               	infsnz	??_atoi^0,f,c
  2652  0024CA  2A1F               	incf	(??_atoi+1)^0,f,c
  2653  0024CC  C01E  F01C         	movff	??_atoi,?_atoi
  2654  0024D0  C01F  F01D         	movff	??_atoi+1,?_atoi+1
  2655  0024D4  0012               	return	
  2656  0024D6                     l1769:
  2657  0024D6  C024  F01C         	movff	atoi@n,?_atoi
  2658  0024DA  C025  F01D         	movff	atoi@n+1,?_atoi+1
  2659  0024DE  0012               	return		;funcret
  2660  0024E0                     __end_of_atoi:
  2661                           	callstack 0
  2662                           
  2663 ;; *************** function _isspace *****************
  2664 ;; Defined at:
  2665 ;;		line 5 in file "/opt/microchip/xc8/v2.35/pic/sources/c99/common/isspace.c"
  2666 ;; Parameters:    Size  Location     Type
  2667 ;;  c               2   20[COMRAM] int 
  2668 ;; Auto vars:     Size  Location     Type
  2669 ;;		None
  2670 ;; Return value:  Size  Location     Type
  2671 ;;                  2   20[COMRAM] int 
  2672 ;; Registers used:
  2673 ;;		wreg, status,2, status,0
  2674 ;; Tracked objects:
  2675 ;;		On entry : 0/0
  2676 ;;		On exit  : 0/0
  2677 ;;		Unchanged: 0/0
  2678 ;; Data sizes:     COMRAM   BANK0   BANK1   BANK2   BANK3   BANK4   BANK5   BANK6   BANK7   BANK8   BANK9  BANK10  BANK1
      +1  BANK12  BANK13  BANK14  BANK15  BANK16  BANK17  BANK18  BANK19  BANK20  BANK21  BANK22  BANK23  BANK24  BANK25  BANK2
      +6  BANK27  BANK28  BANK29  BANK30  BANK31
  2679 ;;      Params:         2       0       0       0       0       0       0       0       0       0       0       0       
      +0       0       0       0       0       0       0       0       0       0       0       0       0       0       0       
      +0       0       0       0       0       0
  2680 ;;      Locals:         1       0       0       0       0       0       0       0       0       0       0       0       
      +0       0       0       0       0       0       0       0       0       0       0       0       0       0       0       
      +0       0       0       0       0       0
  2681 ;;      Temps:          4       0       0       0       0       0       0       0       0       0       0       0       
      +0       0       0       0       0       0       0       0       0       0       0       0       0       0       0       
      +0       0       0       0       0       0
  2682 ;;      Totals:         7       0       0       0       0       0       0       0       0       0       0       0       
      +0       0       0       0       0       0       0       0       0       0       0       0       0       0       0       
      +0       0       0       0       0       0
  2683 ;;Total ram usage:        7 bytes
  2684 ;; Hardware stack levels used: 1
  2685 ;; Hardware stack levels required when called: 4
  2686 ;; This function calls:
  2687 ;;		Nothing
  2688 ;; This function is called by:
  2689 ;;		_atoi
  2690 ;; This function uses a non-reentrant model
  2691 ;;
  2692                           
  2693                           	psect	text10
  2694  002E6C                     __ptext10:
  2695                           	callstack 0
  2696  002E6C                     _isspace:
  2697                           	callstack 22
  2698                           
  2699                           ;incstack = 0
  2700  002E6C  0E01               	movlw	1
  2701  002E6E  6E1B               	movwf	_isspace$2467^0,c
  2702  002E70  0E20               	movlw	32
  2703  002E72  1815               	xorwf	isspace@c^0,w,c
  2704  002E74  1016               	iorwf	(isspace@c+1)^0,w,c
  2705  002E76  B4D8               	btfsc	status,2,c
  2706  002E78  D014               	goto	l3299
  2707  002E7A  0EF7               	movlw	247
  2708  002E7C  6E17               	movwf	??_isspace^0,c
  2709  002E7E  0EFF               	movlw	255
  2710  002E80  6E18               	movwf	(??_isspace+1)^0,c
  2711  002E82  C015  F019         	movff	isspace@c,??_isspace+2
  2712  002E86  C016  F01A         	movff	isspace@c+1,??_isspace+3
  2713  002E8A  5017               	movf	??_isspace^0,w,c
  2714  002E8C  2619               	addwf	(??_isspace+2)^0,f,c
  2715  002E8E  5018               	movf	(??_isspace+1)^0,w,c
  2716  002E90  221A               	addwfc	(??_isspace+3)^0,f,c
  2717  002E92  501A               	movf	(??_isspace+3)^0,w,c
  2718  002E94  E104               	bnz	u1780
  2719  002E96  0E05               	movlw	5
  2720  002E98  5C19               	subwf	(??_isspace+2)^0,w,c
  2721  002E9A  A0D8               	btfss	status,0,c
  2722  002E9C  D002               	goto	l3299
  2723  002E9E                     u1780:
  2724  002E9E  0E00               	movlw	0
  2725  002EA0  6E1B               	movwf	_isspace$2467^0,c
  2726  002EA2                     l3299:
  2727  002EA2  C01B  F015         	movff	_isspace$2467,?_isspace
  2728  002EA6  6A16               	clrf	(?_isspace+1)^0,c
  2729  002EA8  0012               	return		;funcret
  2730  002EAA                     __end_of_isspace:
  2731                           	callstack 0
  2732                           
  2733 ;; *************** function _isdigit *****************
  2734 ;; Defined at:
  2735 ;;		line 5 in file "/opt/microchip/xc8/v2.35/pic/sources/c99/common/isdigit.c"
  2736 ;; Parameters:    Size  Location     Type
  2737 ;;  c               2   20[COMRAM] int 
  2738 ;; Auto vars:     Size  Location     Type
  2739 ;;		None
  2740 ;; Return value:  Size  Location     Type
  2741 ;;                  2   20[COMRAM] int 
  2742 ;; Registers used:
  2743 ;;		wreg, status,2, status,0
  2744 ;; Tracked objects:
  2745 ;;		On entry : 0/0
  2746 ;;		On exit  : 0/0
  2747 ;;		Unchanged: 0/0
  2748 ;; Data sizes:     COMRAM   BANK0   BANK1   BANK2   BANK3   BANK4   BANK5   BANK6   BANK7   BANK8   BANK9  BANK10  BANK1
      +1  BANK12  BANK13  BANK14  BANK15  BANK16  BANK17  BANK18  BANK19  BANK20  BANK21  BANK22  BANK23  BANK24  BANK25  BANK2
      +6  BANK27  BANK28  BANK29  BANK30  BANK31
  2749 ;;      Params:         2       0       0       0       0       0       0       0       0       0       0       0       
      +0       0       0       0       0       0       0       0       0       0       0       0       0       0       0       
      +0       0       0       0       0       0
  2750 ;;      Locals:         0       0       0       0       0       0       0       0       0       0       0       0       
      +0       0       0       0       0       0       0       0       0       0       0       0       0       0       0       
      +0       0       0       0       0       0
  2751 ;;      Temps:          4       0       0       0       0       0       0       0       0       0       0       0       
      +0       0       0       0       0       0       0       0       0       0       0       0       0       0       0       
      +0       0       0       0       0       0
  2752 ;;      Totals:         6       0       0       0       0       0       0       0       0       0       0       0       
      +0       0       0       0       0       0       0       0       0       0       0       0       0       0       0       
      +0       0       0       0       0       0
  2753 ;;Total ram usage:        6 bytes
  2754 ;; Hardware stack levels used: 1
  2755 ;; Hardware stack levels required when called: 4
  2756 ;; This function calls:
  2757 ;;		Nothing
  2758 ;; This function is called by:
  2759 ;;		_vfpfcnvrt
  2760 ;;		_atoi
  2761 ;; This function uses a non-reentrant model
  2762 ;;
  2763                           
  2764                           	psect	text11
  2765  003018                     __ptext11:
  2766                           	callstack 0
  2767  003018                     _isdigit:
  2768                           	callstack 23
  2769                           
  2770                           ;incstack = 0
  2771  003018  0ED0               	movlw	208
  2772  00301A  6E17               	movwf	??_isdigit^0,c
  2773  00301C  0EFF               	movlw	255
  2774  00301E  6E18               	movwf	(??_isdigit+1)^0,c
  2775  003020  C015  F019         	movff	isdigit@c,??_isdigit+2
  2776  003024  C016  F01A         	movff	isdigit@c+1,??_isdigit+3
  2777  003028  5017               	movf	??_isdigit^0,w,c
  2778  00302A  2619               	addwf	(??_isdigit+2)^0,f,c
  2779  00302C  5018               	movf	(??_isdigit+1)^0,w,c
  2780  00302E  221A               	addwfc	(??_isdigit+3)^0,f,c
  2781  003030  501A               	movf	(??_isdigit+3)^0,w,c
  2782  003032  E106               	bnz	u1750
  2783  003034  0E0A               	movlw	10
  2784  003036  5C19               	subwf	(??_isdigit+2)^0,w,c
  2785  003038  B0D8               	btfsc	status,0,c
  2786  00303A  D002               	goto	u1750
  2787  00303C  0E01               	movlw	1
  2788  00303E  D001               	goto	u1760
  2789  003040                     u1750:
  2790  003040  0E00               	movlw	0
  2791  003042                     u1760:
  2792  003042  6E15               	movwf	?_isdigit^0,c
  2793  003044  6A16               	clrf	(?_isdigit+1)^0,c
  2794  003046  0012               	return		;funcret
  2795  003048                     __end_of_isdigit:
  2796                           	callstack 0
  2797                           
  2798 ;; *************** function ___wmul *****************
  2799 ;; Defined at:
  2800 ;;		line 15 in file "/opt/microchip/xc8/v2.35/pic/sources/c99/common/Umul16.c"
  2801 ;; Parameters:    Size  Location     Type
  2802 ;;  multiplier      2   20[COMRAM] unsigned int 
  2803 ;;  multiplicand    2   22[COMRAM] unsigned int 
  2804 ;; Auto vars:     Size  Location     Type
  2805 ;;  product         2   24[COMRAM] unsigned int 
  2806 ;; Return value:  Size  Location     Type
  2807 ;;                  2   20[COMRAM] unsigned int 
  2808 ;; Registers used:
  2809 ;;		wreg, status,2, status,0, prodl, prodh
  2810 ;; Tracked objects:
  2811 ;;		On entry : 0/0
  2812 ;;		On exit  : 0/0
  2813 ;;		Unchanged: 0/0
  2814 ;; Data sizes:     COMRAM   BANK0   BANK1   BANK2   BANK3   BANK4   BANK5   BANK6   BANK7   BANK8   BANK9  BANK10  BANK1
      +1  BANK12  BANK13  BANK14  BANK15  BANK16  BANK17  BANK18  BANK19  BANK20  BANK21  BANK22  BANK23  BANK24  BANK25  BANK2
      +6  BANK27  BANK28  BANK29  BANK30  BANK31
  2815 ;;      Params:         4       0       0       0       0       0       0       0       0       0       0       0       
      +0       0       0       0       0       0       0       0       0       0       0       0       0       0       0       
      +0       0       0       0       0       0
  2816 ;;      Locals:         2       0       0       0       0       0       0       0       0       0       0       0       
      +0       0       0       0       0       0       0       0       0       0       0       0       0       0       0       
      +0       0       0       0       0       0
  2817 ;;      Temps:          0       0       0       0       0       0       0       0       0       0       0       0       
      +0       0       0       0       0       0       0       0       0       0       0       0       0       0       0       
      +0       0       0       0       0       0
  2818 ;;      Totals:         6       0       0       0       0       0       0       0       0       0       0       0       
      +0       0       0       0       0       0       0       0       0       0       0       0       0       0       0       
      +0       0       0       0       0       0
  2819 ;;Total ram usage:        6 bytes
  2820 ;; Hardware stack levels used: 1
  2821 ;; Hardware stack levels required when called: 4
  2822 ;; This function calls:
  2823 ;;		Nothing
  2824 ;; This function is called by:
  2825 ;;		_atoi
  2826 ;; This function uses a non-reentrant model
  2827 ;;
  2828                           
  2829                           	psect	text12
  2830  0030A2                     __ptext12:
  2831                           	callstack 0
  2832  0030A2                     ___wmul:
  2833                           	callstack 22
  2834                           
  2835                           ;incstack = 0
  2836  0030A2  5015               	movf	___wmul@multiplier^0,w,c
  2837  0030A4  0217               	mulwf	___wmul@multiplicand^0,c
  2838  0030A6  006F FFCC  F019    	movff	prodl,___wmul@product
  2839  0030AC  006F FFD0  F01A    	movff	prodh,___wmul@product+1
  2840  0030B2  5015               	movf	___wmul@multiplier^0,w,c
  2841  0030B4  0218               	mulwf	(___wmul@multiplicand+1)^0,c
  2842  0030B6  50F3               	movf	243,w,c
  2843  0030B8  261A               	addwf	(___wmul@product+1)^0,f,c
  2844  0030BA  5016               	movf	(___wmul@multiplier+1)^0,w,c
  2845  0030BC  0217               	mulwf	___wmul@multiplicand^0,c
  2846  0030BE  50F3               	movf	243,w,c
  2847  0030C0  261A               	addwf	(___wmul@product+1)^0,f,c
  2848  0030C2  C019  F015         	movff	___wmul@product,?___wmul
  2849  0030C6  C01A  F016         	movff	___wmul@product+1,?___wmul+1
  2850  0030CA  0012               	return		;funcret
  2851  0030CC                     __end_of___wmul:
  2852                           	callstack 0
  2853                           
  2854 ;; *************** function _puts *****************
  2855 ;; Defined at:
  2856 ;;		line 3 in file "/opt/microchip/xc8/v2.35/pic/sources/c99/common/puts.c"
  2857 ;; Parameters:    Size  Location     Type
  2858 ;;  s               2   38[COMRAM] PTR const unsigned char 
  2859 ;;		 -> buff1(128), 
  2860 ;; Auto vars:     Size  Location     Type
  2861 ;;  r               2    0        int 
  2862 ;; Return value:  Size  Location     Type
  2863 ;;                  2   38[COMRAM] int 
  2864 ;; Registers used:
  2865 ;;		wreg, fsr1l, fsr1h, fsr2l, fsr2h, status,2, status,0, cstack
  2866 ;; Tracked objects:
  2867 ;;		On entry : 3F/0
  2868 ;;		On exit  : 0/0
  2869 ;;		Unchanged: 0/0
  2870 ;; Data sizes:     COMRAM   BANK0   BANK1   BANK2   BANK3   BANK4   BANK5   BANK6   BANK7   BANK8   BANK9  BANK10  BANK1
      +1  BANK12  BANK13  BANK14  BANK15  BANK16  BANK17  BANK18  BANK19  BANK20  BANK21  BANK22  BANK23  BANK24  BANK25  BANK2
      +6  BANK27  BANK28  BANK29  BANK30  BANK31
  2871 ;;      Params:         2       0       0       0       0       0       0       0       0       0       0       0       
      +0       0       0       0       0       0       0       0       0       0       0       0       0       0       0       
      +0       0       0       0       0       0
  2872 ;;      Locals:         1       0       0       0       0       0       0       0       0       0       0       0       
      +0       0       0       0       0       0       0       0       0       0       0       0       0       0       0       
      +0       0       0       0       0       0
  2873 ;;      Temps:          0       0       0       0       0       0       0       0       0       0       0       0       
      +0       0       0       0       0       0       0       0       0       0       0       0       0       0       0       
      +0       0       0       0       0       0
  2874 ;;      Totals:         3       0       0       0       0       0       0       0       0       0       0       0       
      +0       0       0       0       0       0       0       0       0       0       0       0       0       0       0       
      +0       0       0       0       0       0
  2875 ;;Total ram usage:        3 bytes
  2876 ;; Hardware stack levels used: 1
  2877 ;; Hardware stack levels required when called: 8
  2878 ;; This function calls:
  2879 ;;		_fputc
  2880 ;;		_fputs
  2881 ;; This function is called by:
  2882 ;;		_main
  2883 ;; This function uses a non-reentrant model
  2884 ;;
  2885                           
  2886                           	psect	text13
  2887  002FA6                     __ptext13:
  2888                           	callstack 0
  2889  002FA6                     _puts:
  2890                           	callstack 22
  2891                           
  2892                           ; BSR set to: 0
  2893                           
  2894                           ;incstack = 0
  2895  002FA6  0E01               	movlw	1
  2896  002FA8  6E29               	movwf	_puts$2522^0,c
  2897                           
  2898                           ; BSR set to: 0
  2899  002FAA  C027  F020         	movff	puts@s,fputs@s
  2900  002FAE  C028  F021         	movff	puts@s+1,fputs@s+1
  2901  002FB2  0E00               	movlw	0
  2902  002FB4  6E22               	movwf	fputs@fp^0,c
  2903  002FB6  0E00               	movlw	0
  2904  002FB8  6E23               	movwf	(fputs@fp+1)^0,c
  2905  002FBA  ECF7  F016         	call	_fputs	;wreg free
  2906  002FBE  BE21               	btfsc	(?_fputs+1)^0,7,c
  2907  002FC0  0012               	return	
  2908  002FC2  0E00               	movlw	0
  2909  002FC4  6E18               	movwf	(fputc@c+1)^0,c
  2910  002FC6  0E0A               	movlw	10
  2911  002FC8  6E17               	movwf	fputc@c^0,c
  2912  002FCA  0E00               	movlw	0
  2913  002FCC  6E19               	movwf	fputc@fp^0,c
  2914  002FCE  0E00               	movlw	0
  2915  002FD0  6E1A               	movwf	(fputc@fp+1)^0,c
  2916  002FD2  EC7E  F014         	call	_fputc	;wreg free
  2917  002FD6  BE18               	btfsc	(?_fputc+1)^0,7,c
  2918  002FD8  0012               	return	
  2919  002FDA  0E00               	movlw	0
  2920  002FDC  6E29               	movwf	_puts$2522^0,c
  2921  002FDE  0012               	return		;funcret
  2922  002FE0                     __end_of_puts:
  2923                           	callstack 0
  2924                           
  2925 ;; *************** function _fputs *****************
  2926 ;; Defined at:
  2927 ;;		line 8 in file "/opt/microchip/xc8/v2.35/pic/sources/c99/common/nf_fputs.c"
  2928 ;; Parameters:    Size  Location     Type
  2929 ;;  s               2   31[COMRAM] PTR const unsigned char 
  2930 ;;		 -> dbuf(32), buff1(128), 
  2931 ;;  fp              2   33[COMRAM] PTR struct _IO_FILE
  2932 ;;		 -> NULL(0), sprintf@f(11), 
  2933 ;; Auto vars:     Size  Location     Type
  2934 ;;  i               2   36[COMRAM] int 
  2935 ;;  c               1   35[COMRAM] unsigned char 
  2936 ;; Return value:  Size  Location     Type
  2937 ;;                  2   31[COMRAM] int 
  2938 ;; Registers used:
  2939 ;;		wreg, fsr1l, fsr1h, fsr2l, fsr2h, status,2, status,0, cstack
  2940 ;; Tracked objects:
  2941 ;;		On entry : 0/0
  2942 ;;		On exit  : 0/0
  2943 ;;		Unchanged: 0/0
  2944 ;; Data sizes:     COMRAM   BANK0   BANK1   BANK2   BANK3   BANK4   BANK5   BANK6   BANK7   BANK8   BANK9  BANK10  BANK1
      +1  BANK12  BANK13  BANK14  BANK15  BANK16  BANK17  BANK18  BANK19  BANK20  BANK21  BANK22  BANK23  BANK24  BANK25  BANK2
      +6  BANK27  BANK28  BANK29  BANK30  BANK31
  2945 ;;      Params:         4       0       0       0       0       0       0       0       0       0       0       0       
      +0       0       0       0       0       0       0       0       0       0       0       0       0       0       0       
      +0       0       0       0       0       0
  2946 ;;      Locals:         3       0       0       0       0       0       0       0       0       0       0       0       
      +0       0       0       0       0       0       0       0       0       0       0       0       0       0       0       
      +0       0       0       0       0       0
  2947 ;;      Temps:          0       0       0       0       0       0       0       0       0       0       0       0       
      +0       0       0       0       0       0       0       0       0       0       0       0       0       0       0       
      +0       0       0       0       0       0
  2948 ;;      Totals:         7       0       0       0       0       0       0       0       0       0       0       0       
      +0       0       0       0       0       0       0       0       0       0       0       0       0       0       0       
      +0       0       0       0       0       0
  2949 ;;Total ram usage:        7 bytes
  2950 ;; Hardware stack levels used: 1
  2951 ;; Hardware stack levels required when called: 7
  2952 ;; This function calls:
  2953 ;;		_fputc
  2954 ;; This function is called by:
  2955 ;;		_pad
  2956 ;;		_puts
  2957 ;; This function uses a non-reentrant model
  2958 ;;
  2959                           
  2960                           	psect	text14
  2961  002DEE                     __ptext14:
  2962                           	callstack 0
  2963  002DEE                     _fputs:
  2964                           	callstack 18
  2965                           
  2966                           ;incstack = 0
  2967  002DEE  0E00               	movlw	0
  2968  002DF0  6E26               	movwf	(fputs@i+1)^0,c
  2969  002DF2  0E00               	movlw	0
  2970  002DF4  6E25               	movwf	fputs@i^0,c
  2971  002DF6  D00B               	goto	l3209
  2972  002DF8                     l3205:
  2973  002DF8  C024  F017         	movff	fputs@c,fputc@c
  2974  002DFC  6A18               	clrf	(fputc@c+1)^0,c
  2975  002DFE  C022  F019         	movff	fputs@fp,fputc@fp
  2976  002E02  C023  F01A         	movff	fputs@fp+1,fputc@fp+1
  2977  002E06  EC7E  F014         	call	_fputc	;wreg free
  2978  002E0A  4A25               	infsnz	fputs@i^0,f,c
  2979  002E0C  2A26               	incf	(fputs@i+1)^0,f,c
  2980  002E0E                     l3209:
  2981  002E0E  5025               	movf	fputs@i^0,w,c
  2982  002E10  2420               	addwf	fputs@s^0,w,c
  2983  002E12  6ED9               	movwf	fsr2l,c
  2984  002E14  5026               	movf	(fputs@i+1)^0,w,c
  2985  002E16  2021               	addwfc	(fputs@s+1)^0,w,c
  2986  002E18  6EDA               	movwf	fsr2h,c
  2987  002E1A  50DF               	movf	indf2,w,c
  2988  002E1C  6E24               	movwf	fputs@c^0,c
  2989  002E1E  5024               	movf	fputs@c^0,w,c
  2990  002E20  A4D8               	btfss	status,2,c
  2991  002E22  D7EA               	goto	l3205
  2992  002E24  C025  F020         	movff	fputs@i,?_fputs
  2993  002E28  C026  F021         	movff	fputs@i+1,?_fputs+1
  2994  002E2C  0012               	return		;funcret
  2995  002E2E                     __end_of_fputs:
  2996                           	callstack 0
  2997                           
  2998 ;; *************** function _fputc *****************
  2999 ;; Defined at:
  3000 ;;		line 8 in file "/opt/microchip/xc8/v2.35/pic/sources/c99/common/nf_fputc.c"
  3001 ;; Parameters:    Size  Location     Type
  3002 ;;  c               2   22[COMRAM] int 
  3003 ;;  fp              2   24[COMRAM] PTR struct _IO_FILE
  3004 ;;		 -> NULL(0), sprintf@f(11), 
  3005 ;; Auto vars:     Size  Location     Type
  3006 ;;		None
  3007 ;; Return value:  Size  Location     Type
  3008 ;;                  2   22[COMRAM] int 
  3009 ;; Registers used:
  3010 ;;		wreg, fsr1l, fsr1h, fsr2l, fsr2h, status,2, status,0, cstack
  3011 ;; Tracked objects:
  3012 ;;		On entry : 0/0
  3013 ;;		On exit  : 0/0
  3014 ;;		Unchanged: 0/0
  3015 ;; Data sizes:     COMRAM   BANK0   BANK1   BANK2   BANK3   BANK4   BANK5   BANK6   BANK7   BANK8   BANK9  BANK10  BANK1
      +1  BANK12  BANK13  BANK14  BANK15  BANK16  BANK17  BANK18  BANK19  BANK20  BANK21  BANK22  BANK23  BANK24  BANK25  BANK2
      +6  BANK27  BANK28  BANK29  BANK30  BANK31
  3016 ;;      Params:         4       0       0       0       0       0       0       0       0       0       0       0       
      +0       0       0       0       0       0       0       0       0       0       0       0       0       0       0       
      +0       0       0       0       0       0
  3017 ;;      Locals:         0       0       0       0       0       0       0       0       0       0       0       0       
      +0       0       0       0       0       0       0       0       0       0       0       0       0       0       0       
      +0       0       0       0       0       0
  3018 ;;      Temps:          5       0       0       0       0       0       0       0       0       0       0       0       
      +0       0       0       0       0       0       0       0       0       0       0       0       0       0       0       
      +0       0       0       0       0       0
  3019 ;;      Totals:         9       0       0       0       0       0       0       0       0       0       0       0       
      +0       0       0       0       0       0       0       0       0       0       0       0       0       0       0       
      +0       0       0       0       0       0
  3020 ;;Total ram usage:        9 bytes
  3021 ;; Hardware stack levels used: 1
  3022 ;; Hardware stack levels required when called: 6
  3023 ;; This function calls:
  3024 ;;		_putch
  3025 ;; This function is called by:
  3026 ;;		_pad
  3027 ;;		_vfpfcnvrt
  3028 ;;		_fputs
  3029 ;;		_puts
  3030 ;; This function uses a non-reentrant model
  3031 ;;
  3032                           
  3033                           	psect	text15
  3034  0028FC                     __ptext15:
  3035                           	callstack 0
  3036  0028FC                     _fputc:
  3037                           	callstack 18
  3038                           
  3039                           ;incstack = 0
  3040  0028FC  5019               	movf	fputc@fp^0,w,c
  3041  0028FE  101A               	iorwf	(fputc@fp+1)^0,w,c
  3042  002900  B4D8               	btfsc	status,2,c
  3043  002902  D004               	goto	u1590
  3044  002904  5019               	movf	fputc@fp^0,w,c
  3045  002906  101A               	iorwf	(fputc@fp+1)^0,w,c
  3046  002908  A4D8               	btfss	status,2,c
  3047  00290A  D004               	goto	l3193
  3048  00290C                     u1590:
  3049  00290C  5017               	movf	fputc@c^0,w,c
  3050  00290E  EC44  F019         	call	_putch
  3051  002912  D04A               	goto	l3199
  3052  002914                     l3193:
  3053  002914  EE20 F009          	lfsr	2,9
  3054  002918  5019               	movf	fputc@fp^0,w,c
  3055  00291A  26D9               	addwf	fsr2l,f,c
  3056  00291C  501A               	movf	(fputc@fp+1)^0,w,c
  3057  00291E  22DA               	addwfc	fsr2h,f,c
  3058  002920  50DE               	movf	postinc2,w,c
  3059  002922  10DE               	iorwf	postinc2,w,c
  3060  002924  B4D8               	btfsc	status,2,c
  3061  002926  D016               	goto	u1610
  3062  002928  EE20 F009          	lfsr	2,9
  3063  00292C  5019               	movf	fputc@fp^0,w,c
  3064  00292E  26D9               	addwf	fsr2l,f,c
  3065  002930  501A               	movf	(fputc@fp+1)^0,w,c
  3066  002932  22DA               	addwfc	fsr2h,f,c
  3067  002934  EE10 F003          	lfsr	1,3
  3068  002938  5019               	movf	fputc@fp^0,w,c
  3069  00293A  26E1               	addwf	fsr1l,f,c
  3070  00293C  501A               	movf	(fputc@fp+1)^0,w,c
  3071  00293E  22E2               	addwfc	fsr1h,f,c
  3072  002940  50DE               	movf	postinc2,w,c
  3073  002942  5CE6               	subwf	postinc1,w,c
  3074  002944  50E6               	movf	postinc1,w,c
  3075  002946  0A80               	xorlw	128
  3076  002948  6E1F               	movwf	(??_fputc+4)^0,c
  3077  00294A  50DE               	movf	postinc2,w,c
  3078  00294C  0A80               	xorlw	128
  3079  00294E  581F               	subwfb	(??_fputc+4)^0,w,c
  3080  002950  B0D8               	btfsc	status,0,c
  3081  002952  D02A               	goto	l3199
  3082  002954                     u1610:
  3083  002954  EE20 F003          	lfsr	2,3
  3084  002958  5019               	movf	fputc@fp^0,w,c
  3085  00295A  26D9               	addwf	fsr2l,f,c
  3086  00295C  501A               	movf	(fputc@fp+1)^0,w,c
  3087  00295E  22DA               	addwfc	fsr2h,f,c
  3088  002960  006F FF78  F01B    	movff	postinc2,??_fputc
  3089  002966  006F FF74  F01C    	movff	postdec2,??_fputc+1
  3090  00296C  0060  F067  FFD9   	movff	fputc@fp,fsr2l
  3091  002972  0060  F06B  FFDA   	movff	fputc@fp+1,fsr2h
  3092  002978  006F FF78  F01D    	movff	postinc2,??_fputc+2
  3093  00297E  006F FF74  F01E    	movff	postdec2,??_fputc+3
  3094  002984  501B               	movf	??_fputc^0,w,c
  3095  002986  241D               	addwf	(??_fputc+2)^0,w,c
  3096  002988  6ED9               	movwf	fsr2l,c
  3097  00298A  501C               	movf	(??_fputc+1)^0,w,c
  3098  00298C  201E               	addwfc	(??_fputc+3)^0,w,c
  3099  00298E  6EDA               	movwf	fsr2h,c
  3100  002990  0060  F05F  FFDF   	movff	fputc@c,indf2
  3101  002996  EE20 F003          	lfsr	2,3
  3102  00299A  5019               	movf	fputc@fp^0,w,c
  3103  00299C  26D9               	addwf	fsr2l,f,c
  3104  00299E  501A               	movf	(fputc@fp+1)^0,w,c
  3105  0029A0  22DA               	addwfc	fsr2h,f,c
  3106  0029A2  2ADE               	incf	postinc2,f,c
  3107  0029A4  0E00               	movlw	0
  3108  0029A6  22DD               	addwfc	postdec2,f,c
  3109  0029A8                     l3199:
  3110  0029A8  C017  F017         	movff	fputc@c,?_fputc
  3111  0029AC  6A18               	clrf	(?_fputc+1)^0,c
  3112  0029AE  0012               	return		;funcret
  3113  0029B0                     __end_of_fputc:
  3114                           	callstack 0
  3115                           
  3116 ;; *************** function _putch *****************
  3117 ;; Defined at:
  3118 ;;		line 230 in file "mcc_generated_files/uart1.c"
  3119 ;; Parameters:    Size  Location     Type
  3120 ;;  txData          1    wreg     unsigned char 
  3121 ;; Auto vars:     Size  Location     Type
  3122 ;;  txData          1   21[COMRAM] unsigned char 
  3123 ;; Return value:  Size  Location     Type
  3124 ;;                  1    wreg      void 
  3125 ;; Registers used:
  3126 ;;		wreg, fsr2l, fsr2h, status,2, status,0, cstack
  3127 ;; Tracked objects:
  3128 ;;		On entry : 0/0
  3129 ;;		On exit  : 3F/39
  3130 ;;		Unchanged: 0/0
  3131 ;; Data sizes:     COMRAM   BANK0   BANK1   BANK2   BANK3   BANK4   BANK5   BANK6   BANK7   BANK8   BANK9  BANK10  BANK1
      +1  BANK12  BANK13  BANK14  BANK15  BANK16  BANK17  BANK18  BANK19  BANK20  BANK21  BANK22  BANK23  BANK24  BANK25  BANK2
      +6  BANK27  BANK28  BANK29  BANK30  BANK31
  3132 ;;      Params:         0       0       0       0       0       0       0       0       0       0       0       0       
      +0       0       0       0       0       0       0       0       0       0       0       0       0       0       0       
      +0       0       0       0       0       0
  3133 ;;      Locals:         1       0       0       0       0       0       0       0       0       0       0       0       
      +0       0       0       0       0       0       0       0       0       0       0       0       0       0       0       
      +0       0       0       0       0       0
  3134 ;;      Temps:          0       0       0       0       0       0       0       0       0       0       0       0       
      +0       0       0       0       0       0       0       0       0       0       0       0       0       0       0       
      +0       0       0       0       0       0
  3135 ;;      Totals:         1       0       0       0       0       0       0       0       0       0       0       0       
      +0       0       0       0       0       0       0       0       0       0       0       0       0       0       0       
      +0       0       0       0       0       0
  3136 ;;Total ram usage:        1 bytes
  3137 ;; Hardware stack levels used: 1
  3138 ;; Hardware stack levels required when called: 5
  3139 ;; This function calls:
  3140 ;;		_UART1_Write
  3141 ;; This function is called by:
  3142 ;;		_fputc
  3143 ;; This function uses a non-reentrant model
  3144 ;;
  3145                           
  3146                           	psect	text16
  3147  003288                     __ptext16:
  3148                           	callstack 0
  3149  003288                     _putch:
  3150                           	callstack 18
  3151                           
  3152                           ;incstack = 0
  3153                           ;putch@txData stored from wreg
  3154  003288  6E16               	movwf	putch@txData^0,c
  3155                           
  3156                           ;mcc_generated_files/uart1.c: 230: void putch(char txData);mcc_generated_files/uart1.c: 
      +                          231: {;mcc_generated_files/uart1.c: 232:     UART1_Write(txData);
  3157  00328A  5016               	movf	putch@txData^0,w,c
  3158  00328C  ECB5  F017         	call	_UART1_Write
  3159                           
  3160                           ; BSR set to: 57
  3161  003290  0012               	return		;funcret
  3162  003292                     __end_of_putch:
  3163                           	callstack 0
  3164                           
  3165 ;; *************** function _UART1_Write *****************
  3166 ;; Defined at:
  3167 ;;		line 202 in file "mcc_generated_files/uart1.c"
  3168 ;; Parameters:    Size  Location     Type
  3169 ;;  txData          1    wreg     unsigned char 
  3170 ;; Auto vars:     Size  Location     Type
  3171 ;;  txData          1   20[COMRAM] unsigned char 
  3172 ;; Return value:  Size  Location     Type
  3173 ;;                  1    wreg      void 
  3174 ;; Registers used:
  3175 ;;		wreg, fsr2l, fsr2h, status,2, status,0
  3176 ;; Tracked objects:
  3177 ;;		On entry : 0/0
  3178 ;;		On exit  : 3F/39
  3179 ;;		Unchanged: 0/0
  3180 ;; Data sizes:     COMRAM   BANK0   BANK1   BANK2   BANK3   BANK4   BANK5   BANK6   BANK7   BANK8   BANK9  BANK10  BANK1
      +1  BANK12  BANK13  BANK14  BANK15  BANK16  BANK17  BANK18  BANK19  BANK20  BANK21  BANK22  BANK23  BANK24  BANK25  BANK2
      +6  BANK27  BANK28  BANK29  BANK30  BANK31
  3181 ;;      Params:         0       0       0       0       0       0       0       0       0       0       0       0       
      +0       0       0       0       0       0       0       0       0       0       0       0       0       0       0       
      +0       0       0       0       0       0
  3182 ;;      Locals:         1       0       0       0       0       0       0       0       0       0       0       0       
      +0       0       0       0       0       0       0       0       0       0       0       0       0       0       0       
      +0       0       0       0       0       0
  3183 ;;      Temps:          0       0       0       0       0       0       0       0       0       0       0       0       
      +0       0       0       0       0       0       0       0       0       0       0       0       0       0       0       
      +0       0       0       0       0       0
  3184 ;;      Totals:         1       0       0       0       0       0       0       0       0       0       0       0       
      +0       0       0       0       0       0       0       0       0       0       0       0       0       0       0       
      +0       0       0       0       0       0
  3185 ;;Total ram usage:        1 bytes
  3186 ;; Hardware stack levels used: 1
  3187 ;; Hardware stack levels required when called: 4
  3188 ;; This function calls:
  3189 ;;		Nothing
  3190 ;; This function is called by:
  3191 ;;		_putch
  3192 ;; This function uses a non-reentrant model
  3193 ;;
  3194                           
  3195                           	psect	text17
  3196  002F6A                     __ptext17:
  3197                           	callstack 0
  3198  002F6A                     _UART1_Write:
  3199                           	callstack 18
  3200                           
  3201                           ; BSR set to: 57
  3202                           ;incstack = 0
  3203                           ;UART1_Write@txData stored from wreg
  3204  002F6A  6E15               	movwf	UART1_Write@txData^0,c
  3205  002F6C                     
  3206                           ;mcc_generated_files/uart1.c: 204:     while(0 == uart1TxBufferRemaining)
  3207                           
  3208                           ;mcc_generated_files/uart1.c: 202: void UART1_Write(uint8_t txData);mcc_generated_files/
      +                          uart1.c: 203: {;mcc_generated_files/uart1.c: 204:     while(0 == uart1TxBufferRemaining)
  3209  002F6C  5049               	movf	_uart1TxBufferRemaining^0,w,c	;volatile
  3210  002F6E  B4D8               	btfsc	status,2,c
  3211  002F70  D7FD               	goto	l3167
  3212                           
  3213                           ;mcc_generated_files/uart1.c: 208:     if(0 == PIE3bits.U1TXIE)
  3214  002F72  0139               	movlb	57	; () banked
  3215  002F74  B993               	btfsc	147,4,b	;volatile
  3216  002F76  D004               	goto	l616
  3217                           
  3218                           ; BSR set to: 57
  3219                           ;mcc_generated_files/uart1.c: 209:     {;mcc_generated_files/uart1.c: 210:         U1TXB
      +                           = txData;
  3220  002F78  0060  F057  FDEA   	movff	UART1_Write@txData,15850	;volatile
  3221                           
  3222                           ;mcc_generated_files/uart1.c: 211:     }
  3223  002F7E  D011               	goto	l3183
  3224  002F80                     l616:
  3225                           
  3226                           ; BSR set to: 57
  3227                           ;mcc_generated_files/uart1.c: 213:     {;mcc_generated_files/uart1.c: 214:         PIE3b
      +                          its.U1TXIE = 0;
  3228  002F80  9993               	bcf	147,4,b	;volatile
  3229                           
  3230                           ; BSR set to: 57
  3231                           ;mcc_generated_files/uart1.c: 215:         uart1TxBuffer[uart1TxHead++] = txData;
  3232  002F82  0E80               	movlw	low _uart1TxBuffer
  3233  002F84  244B               	addwf	_uart1TxHead^0,w,c	;volatile
  3234  002F86  6ED9               	movwf	fsr2l,c
  3235  002F88  6ADA               	clrf	fsr2h,c
  3236  002F8A  0E01               	movlw	high _uart1TxBuffer
  3237  002F8C  22DA               	addwfc	fsr2h,f,c
  3238  002F8E  0060  F057  FFDF   	movff	UART1_Write@txData,indf2
  3239                           
  3240                           ; BSR set to: 57
  3241  002F94  2A4B               	incf	_uart1TxHead^0,f,c	;volatile
  3242                           
  3243                           ; BSR set to: 57
  3244                           ;mcc_generated_files/uart1.c: 216:         if(sizeof(uart1TxBuffer) <= uart1TxHead)
  3245  002F96  0E3F               	movlw	63
  3246  002F98  644B               	cpfsgt	_uart1TxHead^0,c
  3247  002F9A  D002               	goto	l3181
  3248                           
  3249                           ; BSR set to: 57
  3250                           ;mcc_generated_files/uart1.c: 217:         {;mcc_generated_files/uart1.c: 218:          
      +                             uart1TxHead = 0;
  3251  002F9C  0E00               	movlw	0
  3252  002F9E  6E4B               	movwf	_uart1TxHead^0,c	;volatile
  3253  002FA0                     l3181:
  3254                           
  3255                           ; BSR set to: 57
  3256                           ;mcc_generated_files/uart1.c: 220:         uart1TxBufferRemaining--;
  3257  002FA0  0649               	decf	_uart1TxBufferRemaining^0,f,c	;volatile
  3258  002FA2                     l3183:
  3259                           
  3260                           ; BSR set to: 57
  3261                           ;mcc_generated_files/uart1.c: 222:     PIE3bits.U1TXIE = 1;
  3262  002FA2  8993               	bsf	147,4,b	;volatile
  3263                           
  3264                           ; BSR set to: 57
  3265  002FA4  0012               	return		;funcret
  3266  002FA6                     __end_of_UART1_Write:
  3267                           	callstack 0
  3268                           
  3269 ;; *************** function _display_led *****************
  3270 ;; Defined at:
  3271 ;;		line 3 in file "disp_led.c"
  3272 ;; Parameters:    Size  Location     Type
  3273 ;;  led             1    wreg     enum E16523
  3274 ;; Auto vars:     Size  Location     Type
  3275 ;;  led             1   22[COMRAM] enum E16523
  3276 ;; Return value:  Size  Location     Type
  3277 ;;                  1    wreg      void 
  3278 ;; Registers used:
  3279 ;;		wreg, status,2, status,0
  3280 ;; Tracked objects:
  3281 ;;		On entry : 0/3D
  3282 ;;		On exit  : 0/0
  3283 ;;		Unchanged: 0/0
  3284 ;; Data sizes:     COMRAM   BANK0   BANK1   BANK2   BANK3   BANK4   BANK5   BANK6   BANK7   BANK8   BANK9  BANK10  BANK1
      +1  BANK12  BANK13  BANK14  BANK15  BANK16  BANK17  BANK18  BANK19  BANK20  BANK21  BANK22  BANK23  BANK24  BANK25  BANK2
      +6  BANK27  BANK28  BANK29  BANK30  BANK31
  3285 ;;      Params:         0       0       0       0       0       0       0       0       0       0       0       0       
      +0       0       0       0       0       0       0       0       0       0       0       0       0       0       0       
      +0       0       0       0       0       0
  3286 ;;      Locals:         1       0       0       0       0       0       0       0       0       0       0       0       
      +0       0       0       0       0       0       0       0       0       0       0       0       0       0       0       
      +0       0       0       0       0       0
  3287 ;;      Temps:          2       0       0       0       0       0       0       0       0       0       0       0       
      +0       0       0       0       0       0       0       0       0       0       0       0       0       0       0       
      +0       0       0       0       0       0
  3288 ;;      Totals:         3       0       0       0       0       0       0       0       0       0       0       0       
      +0       0       0       0       0       0       0       0       0       0       0       0       0       0       0       
      +0       0       0       0       0       0
  3289 ;;Total ram usage:        3 bytes
  3290 ;; Hardware stack levels used: 1
  3291 ;; Hardware stack levels required when called: 4
  3292 ;; This function calls:
  3293 ;;		Nothing
  3294 ;; This function is called by:
  3295 ;;		_main
  3296 ;; This function uses a non-reentrant model
  3297 ;;
  3298                           
  3299                           	psect	text18
  3300  00278E                     __ptext18:
  3301                           	callstack 0
  3302  00278E                     _display_led:
  3303                           	callstack 26
  3304                           
  3305                           ; BSR set to: 57
  3306                           ;incstack = 0
  3307                           ;display_led@led stored from wreg
  3308  00278E  6E17               	movwf	display_led@led^0,c
  3309                           
  3310                           ;disp_led.c: 3: void display_led(DISPLAY_TYPES led);disp_led.c: 4: {;disp_led.c: 5:  swi
      +                          tch (led) {
  3311  002790  D02D               	goto	l3603
  3312  002792                     l920:
  3313  002792  98BD               	bcf	189,4,c	;volatile
  3314                           
  3315                           ;disp_led.c: 8:   do { LATDbits.LATD5 = 0; } while(0);
  3316  002794  9ABD               	bcf	189,5,c	;volatile
  3317  002796  0012               	return	
  3318  002798                     l926:
  3319  002798  98BD               	bcf	189,4,c	;volatile
  3320                           
  3321                           ;disp_led.c: 12:   do { LATDbits.LATD5 = 1; } while(0);
  3322  00279A  8ABD               	bsf	189,5,c	;volatile
  3323  00279C  0012               	return	
  3324  00279E                     l931:
  3325  00279E  88BD               	bsf	189,4,c	;volatile
  3326                           
  3327                           ;disp_led.c: 16:   do { LATDbits.LATD5 = 0; } while(0);
  3328  0027A0  9ABD               	bcf	189,5,c	;volatile
  3329  0027A2  0012               	return	
  3330  0027A4                     l936:
  3331  0027A4  9CBD               	bcf	189,6,c	;volatile
  3332                           
  3333                           ;disp_led.c: 20:   do { LATDbits.LATD7 = 0; } while(0);
  3334  0027A6  9EBD               	bcf	189,7,c	;volatile
  3335  0027A8  0012               	return	
  3336  0027AA                     l941:
  3337  0027AA  9CBD               	bcf	189,6,c	;volatile
  3338                           
  3339                           ;disp_led.c: 24:   do { LATDbits.LATD7 = 1; } while(0);
  3340  0027AC  8EBD               	bsf	189,7,c	;volatile
  3341  0027AE  0012               	return	
  3342  0027B0                     l946:
  3343  0027B0  8CBD               	bsf	189,6,c	;volatile
  3344                           
  3345                           ;disp_led.c: 28:   do { LATDbits.LATD7 = 0; } while(0);
  3346  0027B2  9EBD               	bcf	189,7,c	;volatile
  3347  0027B4  0012               	return	
  3348  0027B6                     l951:
  3349  0027B6  98BF               	bcf	191,4,c	;volatile
  3350                           
  3351                           ;disp_led.c: 32:   do { LATFbits.LATF5 = 0; } while(0);
  3352  0027B8  9ABF               	bcf	191,5,c	;volatile
  3353  0027BA  0012               	return	
  3354  0027BC                     l956:
  3355  0027BC  98BF               	bcf	191,4,c	;volatile
  3356                           
  3357                           ;disp_led.c: 36:   do { LATFbits.LATF5 = 1; } while(0);
  3358  0027BE  8ABF               	bsf	191,5,c	;volatile
  3359  0027C0  0012               	return	
  3360  0027C2                     l961:
  3361  0027C2  88BF               	bsf	191,4,c	;volatile
  3362                           
  3363                           ;disp_led.c: 40:   do { LATFbits.LATF5 = 0; } while(0);
  3364  0027C4  9ABF               	bcf	191,5,c	;volatile
  3365  0027C6  0012               	return	
  3366  0027C8                     l966:
  3367  0027C8  9CBF               	bcf	191,6,c	;volatile
  3368                           
  3369                           ;disp_led.c: 44:   do { LATFbits.LATF7 = 0; } while(0);
  3370  0027CA  9EBF               	bcf	191,7,c	;volatile
  3371  0027CC  0012               	return	
  3372  0027CE                     l971:
  3373  0027CE  9CBF               	bcf	191,6,c	;volatile
  3374                           
  3375                           ;disp_led.c: 48:   do { LATFbits.LATF7 = 1; } while(0);
  3376  0027D0  8EBF               	bsf	191,7,c	;volatile
  3377  0027D2  0012               	return	
  3378  0027D4                     l976:
  3379  0027D4  8CBF               	bsf	191,6,c	;volatile
  3380                           
  3381                           ;disp_led.c: 52:   do { LATFbits.LATF7 = 0; } while(0);
  3382  0027D6  9EBF               	bcf	191,7,c	;volatile
  3383  0027D8  0012               	return	
  3384  0027DA                     l981:
  3385  0027DA  98BD               	bcf	189,4,c	;volatile
  3386                           
  3387                           ;disp_led.c: 56:   do { LATDbits.LATD5 = 0; } while(0);
  3388  0027DC  9ABD               	bcf	189,5,c	;volatile
  3389                           
  3390                           ;disp_led.c: 57:   do { LATDbits.LATD6 = 0; } while(0);
  3391  0027DE  9CBD               	bcf	189,6,c	;volatile
  3392                           
  3393                           ;disp_led.c: 58:   do { LATDbits.LATD7 = 0; } while(0);
  3394  0027E0  9EBD               	bcf	189,7,c	;volatile
  3395                           
  3396                           ;disp_led.c: 59:   do { LATFbits.LATF4 = 0; } while(0);
  3397  0027E2  98BF               	bcf	191,4,c	;volatile
  3398                           
  3399                           ;disp_led.c: 60:   do { LATFbits.LATF5 = 0; } while(0);
  3400  0027E4  9ABF               	bcf	191,5,c	;volatile
  3401                           
  3402                           ;disp_led.c: 61:   do { LATFbits.LATF6 = 0; } while(0);
  3403  0027E6  9CBF               	bcf	191,6,c	;volatile
  3404                           
  3405                           ;disp_led.c: 62:   do { LATFbits.LATF7 = 0; } while(0);
  3406  0027E8  9EBF               	bcf	191,7,c	;volatile
  3407  0027EA  0012               	return	
  3408  0027EC                     l3603:
  3409  0027EC  5017               	movf	display_led@led^0,w,c
  3410  0027EE  6E15               	movwf	??_display_led^0,c
  3411  0027F0  6A16               	clrf	(??_display_led+1)^0,c
  3412                           
  3413                           ; Switch on 2 bytes has been partitioned into a top level switch of size 1, and 1 sub-sw
      +                          itches
  3414                           ; Switch size 1, requested type "simple"
  3415                           ; Number of cases is 1, Range of values is 0 to 0
  3416                           ; switch strategies available:
  3417                           ; Name         Instructions Cycles
  3418                           ; simple_byte            4     3 (average)
  3419                           ;	Chosen strategy is simple_byte
  3420  0027F2  5016               	movf	(??_display_led+1)^0,w,c
  3421  0027F4  0A00               	xorlw	0	; case 0
  3422  0027F6  A4D8               	btfss	status,2,c
  3423  0027F8  D7F0               	goto	l981
  3424                           
  3425                           ; Switch size 1, requested type "simple"
  3426                           ; Number of cases is 12, Range of values is 0 to 11
  3427                           ; switch strategies available:
  3428                           ; Name         Instructions Cycles
  3429                           ; simple_byte           37    19 (average)
  3430                           ;	Chosen strategy is simple_byte
  3431  0027FA  5015               	movf	??_display_led^0,w,c
  3432  0027FC  0A00               	xorlw	0	; case 0
  3433  0027FE  B4D8               	btfsc	status,2,c
  3434  002800  D7C8               	goto	l920
  3435  002802  0A01               	xorlw	1	; case 1
  3436  002804  B4D8               	btfsc	status,2,c
  3437  002806  D7CB               	goto	l931
  3438  002808  0A03               	xorlw	3	; case 2
  3439  00280A  B4D8               	btfsc	status,2,c
  3440  00280C  D7C5               	goto	l926
  3441  00280E  0A01               	xorlw	1	; case 3
  3442  002810  B4D8               	btfsc	status,2,c
  3443  002812  D7C8               	goto	l936
  3444  002814  0A07               	xorlw	7	; case 4
  3445  002816  B4D8               	btfsc	status,2,c
  3446  002818  D7CB               	goto	l946
  3447  00281A  0A01               	xorlw	1	; case 5
  3448  00281C  B4D8               	btfsc	status,2,c
  3449  00281E  D7C5               	goto	l941
  3450  002820  0A03               	xorlw	3	; case 6
  3451  002822  B4D8               	btfsc	status,2,c
  3452  002824  D7C8               	goto	l951
  3453  002826  0A01               	xorlw	1	; case 7
  3454  002828  B4D8               	btfsc	status,2,c
  3455  00282A  D7CB               	goto	l961
  3456  00282C  0A0F               	xorlw	15	; case 8
  3457  00282E  B4D8               	btfsc	status,2,c
  3458  002830  D7C5               	goto	l956
  3459  002832  0A01               	xorlw	1	; case 9
  3460  002834  B4D8               	btfsc	status,2,c
  3461  002836  D7C8               	goto	l966
  3462  002838  0A03               	xorlw	3	; case 10
  3463  00283A  B4D8               	btfsc	status,2,c
  3464  00283C  D7CB               	goto	l976
  3465  00283E  0A01               	xorlw	1	; case 11
  3466  002840  B4D8               	btfsc	status,2,c
  3467  002842  D7C5               	goto	l971
  3468  002844  D7CA               	goto	l981
  3469  002846                     __end_of_display_led:
  3470                           	callstack 0
  3471                           
  3472 ;; *************** function _SYSTEM_Initialize *****************
  3473 ;; Defined at:
  3474 ;;		line 50 in file "mcc_generated_files/mcc.c"
  3475 ;; Parameters:    Size  Location     Type
  3476 ;;		None
  3477 ;; Auto vars:     Size  Location     Type
  3478 ;;		None
  3479 ;; Return value:  Size  Location     Type
  3480 ;;                  1    wreg      void 
  3481 ;; Registers used:
  3482 ;;		wreg, status,2, status,0, cstack
  3483 ;; Tracked objects:
  3484 ;;		On entry : 3F/0
  3485 ;;		On exit  : 3F/3D
  3486 ;;		Unchanged: 0/0
  3487 ;; Data sizes:     COMRAM   BANK0   BANK1   BANK2   BANK3   BANK4   BANK5   BANK6   BANK7   BANK8   BANK9  BANK10  BANK1
      +1  BANK12  BANK13  BANK14  BANK15  BANK16  BANK17  BANK18  BANK19  BANK20  BANK21  BANK22  BANK23  BANK24  BANK25  BANK2
      +6  BANK27  BANK28  BANK29  BANK30  BANK31
  3488 ;;      Params:         0       0       0       0       0       0       0       0       0       0       0       0       
      +0       0       0       0       0       0       0       0       0       0       0       0       0       0       0       
      +0       0       0       0       0       0
  3489 ;;      Locals:         0       0       0       0       0       0       0       0       0       0       0       0       
      +0       0       0       0       0       0       0       0       0       0       0       0       0       0       0       
      +0       0       0       0       0       0
  3490 ;;      Temps:          0       0       0       0       0       0       0       0       0       0       0       0       
      +0       0       0       0       0       0       0       0       0       0       0       0       0       0       0       
      +0       0       0       0       0       0
  3491 ;;      Totals:         0       0       0       0       0       0       0       0       0       0       0       0       
      +0       0       0       0       0       0       0       0       0       0       0       0       0       0       0       
      +0       0       0       0       0       0
  3492 ;;Total ram usage:        0 bytes
  3493 ;; Hardware stack levels used: 1
  3494 ;; Hardware stack levels required when called: 6
  3495 ;; This function calls:
  3496 ;;		_ADCC_Initialize
  3497 ;;		_DAC1_Initialize
  3498 ;;		_INTERRUPT_Initialize
  3499 ;;		_OSCILLATOR_Initialize
  3500 ;;		_PIN_MANAGER_Initialize
  3501 ;;		_PMD_Initialize
  3502 ;;		_SPI1_Initialize
  3503 ;;		_TMR5_Initialize
  3504 ;;		_TMR6_Initialize
  3505 ;;		_UART1_Initialize
  3506 ;; This function is called by:
  3507 ;;		_main
  3508 ;; This function uses a non-reentrant model
  3509 ;;
  3510                           
  3511                           	psect	text19
  3512  0030CC                     __ptext19:
  3513                           	callstack 0
  3514  0030CC                     _SYSTEM_Initialize:
  3515                           	callstack 24
  3516                           
  3517                           ; BSR set to: 0
  3518                           ;mcc_generated_files/mcc.c: 52:     INTERRUPT_Initialize();
  3519                           
  3520                           ;incstack = 0
  3521  0030CC  EC93  F016         	call	_INTERRUPT_Initialize	;wreg free
  3522                           
  3523                           ;mcc_generated_files/mcc.c: 53:     PMD_Initialize();
  3524  0030D0  EC9E  F018         	call	_PMD_Initialize	;wreg free
  3525                           
  3526                           ;mcc_generated_files/mcc.c: 54:     PIN_MANAGER_Initialize();
  3527  0030D4  EC64  F013         	call	_PIN_MANAGER_Initialize	;wreg free
  3528                           
  3529                           ;mcc_generated_files/mcc.c: 55:     OSCILLATOR_Initialize();
  3530  0030D8  ECE0  F018         	call	_OSCILLATOR_Initialize	;wreg free
  3531                           
  3532                           ; BSR set to: 57
  3533                           ;mcc_generated_files/mcc.c: 56:     TMR6_Initialize();
  3534  0030DC  EC3B  F018         	call	_TMR6_Initialize	;wreg free
  3535                           
  3536                           ;mcc_generated_files/mcc.c: 57:     ADCC_Initialize();
  3537  0030E0  ECC4  F015         	call	_ADCC_Initialize	;wreg free
  3538                           
  3539                           ;mcc_generated_files/mcc.c: 58:     DAC1_Initialize();
  3540  0030E4  EC3E  F019         	call	_DAC1_Initialize	;wreg free
  3541                           
  3542                           ; BSR set to: 62
  3543                           ;mcc_generated_files/mcc.c: 59:     TMR5_Initialize();
  3544  0030E8  EC25  F016         	call	_TMR5_Initialize	;wreg free
  3545                           
  3546                           ;mcc_generated_files/mcc.c: 60:     UART1_Initialize();
  3547  0030EC  EC23  F014         	call	_UART1_Initialize	;wreg free
  3548                           
  3549                           ;mcc_generated_files/mcc.c: 61:     SPI1_Initialize();
  3550  0030F0  ECEE  F018         	call	_SPI1_Initialize	;wreg free
  3551                           
  3552                           ; BSR set to: 61
  3553  0030F4  0012               	return		;funcret
  3554  0030F6                     __end_of_SYSTEM_Initialize:
  3555                           	callstack 0
  3556                           
  3557 ;; *************** function _UART1_Initialize *****************
  3558 ;; Defined at:
  3559 ;;		line 87 in file "mcc_generated_files/uart1.c"
  3560 ;; Parameters:    Size  Location     Type
  3561 ;;		None
  3562 ;; Auto vars:     Size  Location     Type
  3563 ;;		None
  3564 ;; Return value:  Size  Location     Type
  3565 ;;                  1    wreg      void 
  3566 ;; Registers used:
  3567 ;;		wreg, status,2, status,0, cstack
  3568 ;; Tracked objects:
  3569 ;;		On entry : 3B/3D
  3570 ;;		On exit  : 3F/39
  3571 ;;		Unchanged: 0/0
  3572 ;; Data sizes:     COMRAM   BANK0   BANK1   BANK2   BANK3   BANK4   BANK5   BANK6   BANK7   BANK8   BANK9  BANK10  BANK1
      +1  BANK12  BANK13  BANK14  BANK15  BANK16  BANK17  BANK18  BANK19  BANK20  BANK21  BANK22  BANK23  BANK24  BANK25  BANK2
      +6  BANK27  BANK28  BANK29  BANK30  BANK31
  3573 ;;      Params:         0       0       0       0       0       0       0       0       0       0       0       0       
      +0       0       0       0       0       0       0       0       0       0       0       0       0       0       0       
      +0       0       0       0       0       0
  3574 ;;      Locals:         0       0       0       0       0       0       0       0       0       0       0       0       
      +0       0       0       0       0       0       0       0       0       0       0       0       0       0       0       
      +0       0       0       0       0       0
  3575 ;;      Temps:          0       0       0       0       0       0       0       0       0       0       0       0       
      +0       0       0       0       0       0       0       0       0       0       0       0       0       0       0       
      +0       0       0       0       0       0
  3576 ;;      Totals:         0       0       0       0       0       0       0       0       0       0       0       0       
      +0       0       0       0       0       0       0       0       0       0       0       0       0       0       0       
      +0       0       0       0       0       0
  3577 ;;Total ram usage:        0 bytes
  3578 ;; Hardware stack levels used: 1
  3579 ;; Hardware stack levels required when called: 5
  3580 ;; This function calls:
  3581 ;;		_UART1_SetErrorHandler
  3582 ;;		_UART1_SetFramingErrorHandler
  3583 ;;		_UART1_SetOverrunErrorHandler
  3584 ;;		_UART1_SetRxInterruptHandler
  3585 ;;		_UART1_SetTxInterruptHandler
  3586 ;; This function is called by:
  3587 ;;		_SYSTEM_Initialize
  3588 ;; This function uses a non-reentrant model
  3589 ;;
  3590                           
  3591                           	psect	text20
  3592  002846                     __ptext20:
  3593                           	callstack 0
  3594  002846                     _UART1_Initialize:
  3595                           	callstack 24
  3596                           
  3597                           ;mcc_generated_files/uart1.c: 90:     PIE3bits.U1RXIE = 0;
  3598                           
  3599                           ; BSR set to: 61
  3600                           ;incstack = 0
  3601  002846  0139               	movlb	57	; () banked
  3602  002848  9793               	bcf	147,3,b	;volatile
  3603                           
  3604                           ; BSR set to: 57
  3605                           ;mcc_generated_files/uart1.c: 91:     UART1_SetRxInterruptHandler(UART1_Receive_ISR);
  3606  00284A  0E5E               	movlw	low _UART1_Receive_ISR
  3607  00284C  6E15               	movwf	UART1_SetRxInterruptHandler@InterruptHandler^0,c
  3608  00284E  0E2A               	movlw	high _UART1_Receive_ISR
  3609  002850  6E16               	movwf	(UART1_SetRxInterruptHandler@InterruptHandler+1)^0,c
  3610  002852  0E00               	movlw	low (_UART1_Receive_ISR shr (0+16))
  3611  002854  6E17               	movwf	(UART1_SetRxInterruptHandler@InterruptHandler+2)^0,c
  3612  002856  EC0D  F019         	call	_UART1_SetRxInterruptHandler	;wreg free
  3613                           
  3614                           ; BSR set to: 57
  3615                           ;mcc_generated_files/uart1.c: 92:     PIE3bits.U1TXIE = 0;
  3616  00285A  9993               	bcf	147,4,b	;volatile
  3617                           
  3618                           ;mcc_generated_files/uart1.c: 93:     UART1_SetTxInterruptHandler(UART1_Transmit_ISR);
  3619  00285C  0E48               	movlw	low _UART1_Transmit_ISR
  3620  00285E  6E15               	movwf	UART1_SetTxInterruptHandler@InterruptHandler^0,c
  3621  002860  0E30               	movlw	high _UART1_Transmit_ISR
  3622  002862  6E16               	movwf	(UART1_SetTxInterruptHandler@InterruptHandler+1)^0,c
  3623  002864  0E00               	movlw	low (_UART1_Transmit_ISR shr (0+16))
  3624  002866  6E17               	movwf	(UART1_SetTxInterruptHandler@InterruptHandler+2)^0,c
  3625  002868  EC06  F019         	call	_UART1_SetTxInterruptHandler	;wreg free
  3626                           
  3627                           ; BSR set to: 57
  3628                           ;mcc_generated_files/uart1.c: 98:     U1P1L = 0x00;
  3629  00286C  0E00               	movlw	0
  3630  00286E  013D               	movlb	61	; () banked
  3631  002870  6FEC               	movwf	236,b	;volatile
  3632                           
  3633                           ; BSR set to: 61
  3634                           ;mcc_generated_files/uart1.c: 101:     U1P1H = 0x00;
  3635  002872  0E00               	movlw	0
  3636  002874  6FED               	movwf	237,b	;volatile
  3637                           
  3638                           ; BSR set to: 61
  3639                           ;mcc_generated_files/uart1.c: 104:     U1P2L = 0x00;
  3640  002876  0E00               	movlw	0
  3641  002878  6FEE               	movwf	238,b	;volatile
  3642                           
  3643                           ; BSR set to: 61
  3644                           ;mcc_generated_files/uart1.c: 107:     U1P2H = 0x00;
  3645  00287A  0E00               	movlw	0
  3646  00287C  6FEF               	movwf	239,b	;volatile
  3647                           
  3648                           ; BSR set to: 61
  3649                           ;mcc_generated_files/uart1.c: 110:     U1P3L = 0x00;
  3650  00287E  0E00               	movlw	0
  3651  002880  6FF0               	movwf	240,b	;volatile
  3652                           
  3653                           ; BSR set to: 61
  3654                           ;mcc_generated_files/uart1.c: 113:     U1P3H = 0x00;
  3655  002882  0E00               	movlw	0
  3656  002884  6FF1               	movwf	241,b	;volatile
  3657                           
  3658                           ; BSR set to: 61
  3659                           ;mcc_generated_files/uart1.c: 116:     U1CON0 = 0xB0;
  3660  002886  0EB0               	movlw	176
  3661  002888  6FF2               	movwf	242,b	;volatile
  3662                           
  3663                           ; BSR set to: 61
  3664                           ;mcc_generated_files/uart1.c: 119:     U1CON1 = 0x80;
  3665  00288A  0E80               	movlw	128
  3666  00288C  6FF3               	movwf	243,b	;volatile
  3667                           
  3668                           ; BSR set to: 61
  3669                           ;mcc_generated_files/uart1.c: 122:     U1CON2 = 0x00;
  3670  00288E  0E00               	movlw	0
  3671  002890  6FF4               	movwf	244,b	;volatile
  3672                           
  3673                           ; BSR set to: 61
  3674                           ;mcc_generated_files/uart1.c: 125:     U1BRGL = 0x15;
  3675  002892  0E15               	movlw	21
  3676  002894  6FF5               	movwf	245,b	;volatile
  3677                           
  3678                           ; BSR set to: 61
  3679                           ;mcc_generated_files/uart1.c: 128:     U1BRGH = 0x01;
  3680  002896  0E01               	movlw	1
  3681  002898  6FF6               	movwf	246,b	;volatile
  3682                           
  3683                           ; BSR set to: 61
  3684                           ;mcc_generated_files/uart1.c: 131:     U1FIFO = 0x00;
  3685  00289A  0E00               	movlw	0
  3686  00289C  6FF7               	movwf	247,b	;volatile
  3687                           
  3688                           ; BSR set to: 61
  3689                           ;mcc_generated_files/uart1.c: 134:     U1UIR = 0x00;
  3690  00289E  0E00               	movlw	0
  3691  0028A0  6FF8               	movwf	248,b	;volatile
  3692                           
  3693                           ; BSR set to: 61
  3694                           ;mcc_generated_files/uart1.c: 137:     U1ERRIR = 0x00;
  3695  0028A2  0E00               	movlw	0
  3696  0028A4  6FF9               	movwf	249,b	;volatile
  3697                           
  3698                           ; BSR set to: 61
  3699                           ;mcc_generated_files/uart1.c: 140:     U1ERRIE = 0x00;
  3700  0028A6  0E00               	movlw	0
  3701  0028A8  6FFA               	movwf	250,b	;volatile
  3702                           
  3703                           ; BSR set to: 61
  3704                           ;mcc_generated_files/uart1.c: 143:     UART1_SetFramingErrorHandler(UART1_DefaultFraming
      +                          ErrorHandler);
  3705  0028AA  0EAC               	movlw	low _UART1_DefaultFramingErrorHandler
  3706  0028AC  6E15               	movwf	UART1_SetFramingErrorHandler@interruptHandler^0,c
  3707  0028AE  0E32               	movlw	high _UART1_DefaultFramingErrorHandler
  3708  0028B0  6E16               	movwf	(UART1_SetFramingErrorHandler@interruptHandler+1)^0,c
  3709  0028B2  0E00               	movlw	low (_UART1_DefaultFramingErrorHandler shr (0+16))
  3710  0028B4  6E17               	movwf	(UART1_SetFramingErrorHandler@interruptHandler+2)^0,c
  3711  0028B6  EC1B  F019         	call	_UART1_SetFramingErrorHandler	;wreg free
  3712                           
  3713                           ; BSR set to: 61
  3714                           ;mcc_generated_files/uart1.c: 144:     UART1_SetOverrunErrorHandler(UART1_DefaultOverrun
      +                          ErrorHandler);
  3715  0028BA  0EAA               	movlw	low _UART1_DefaultOverrunErrorHandler
  3716  0028BC  6E15               	movwf	UART1_SetOverrunErrorHandler@interruptHandler^0,c
  3717  0028BE  0E32               	movlw	high _UART1_DefaultOverrunErrorHandler
  3718  0028C0  6E16               	movwf	(UART1_SetOverrunErrorHandler@interruptHandler+1)^0,c
  3719  0028C2  0E00               	movlw	low (_UART1_DefaultOverrunErrorHandler shr (0+16))
  3720  0028C4  6E17               	movwf	(UART1_SetOverrunErrorHandler@interruptHandler+2)^0,c
  3721  0028C6  EC14  F019         	call	_UART1_SetOverrunErrorHandler	;wreg free
  3722                           
  3723                           ; BSR set to: 61
  3724                           ;mcc_generated_files/uart1.c: 145:     UART1_SetErrorHandler(UART1_DefaultErrorHandler);
  3725  0028CA  0E9C               	movlw	low _UART1_DefaultErrorHandler
  3726  0028CC  6E15               	movwf	UART1_SetErrorHandler@interruptHandler^0,c
  3727  0028CE  0E32               	movlw	high _UART1_DefaultErrorHandler
  3728  0028D0  6E16               	movwf	(UART1_SetErrorHandler@interruptHandler+1)^0,c
  3729  0028D2  0E00               	movlw	low (_UART1_DefaultErrorHandler shr (0+16))
  3730  0028D4  6E17               	movwf	(UART1_SetErrorHandler@interruptHandler+2)^0,c
  3731  0028D6  EC22  F019         	call	_UART1_SetErrorHandler	;wreg free
  3732                           
  3733                           ;mcc_generated_files/uart1.c: 147:     uart1RxLastError.status = 0;
  3734  0028DA  0E00               	movlw	0
  3735  0028DC  6E45               	movwf	_uart1RxLastError^0,c	;volatile
  3736                           
  3737                           ;mcc_generated_files/uart1.c: 150:     uart1TxHead = 0;
  3738  0028DE  0E00               	movlw	0
  3739  0028E0  6E4B               	movwf	_uart1TxHead^0,c	;volatile
  3740                           
  3741                           ;mcc_generated_files/uart1.c: 151:     uart1TxTail = 0;
  3742  0028E2  0E00               	movlw	0
  3743  0028E4  6E4A               	movwf	_uart1TxTail^0,c	;volatile
  3744                           
  3745                           ;mcc_generated_files/uart1.c: 152:     uart1TxBufferRemaining = sizeof(uart1TxBuffer);
  3746  0028E6  0E40               	movlw	64
  3747  0028E8  6E49               	movwf	_uart1TxBufferRemaining^0,c	;volatile
  3748                           
  3749                           ;mcc_generated_files/uart1.c: 153:     uart1RxHead = 0;
  3750  0028EA  0E00               	movlw	0
  3751  0028EC  6E48               	movwf	_uart1RxHead^0,c	;volatile
  3752                           
  3753                           ;mcc_generated_files/uart1.c: 154:     uart1RxTail = 0;
  3754  0028EE  0E00               	movlw	0
  3755  0028F0  6E47               	movwf	_uart1RxTail^0,c	;volatile
  3756                           
  3757                           ;mcc_generated_files/uart1.c: 155:     uart1RxCount = 0;
  3758  0028F2  0E00               	movlw	0
  3759  0028F4  6E46               	movwf	_uart1RxCount^0,c	;volatile
  3760                           
  3761                           ; BSR set to: 61
  3762                           ;mcc_generated_files/uart1.c: 158:     PIE3bits.U1RXIE = 1;
  3763  0028F6  0139               	movlb	57	; () banked
  3764  0028F8  8793               	bsf	147,3,b	;volatile
  3765                           
  3766                           ; BSR set to: 57
  3767  0028FA  0012               	return		;funcret
  3768  0028FC                     __end_of_UART1_Initialize:
  3769                           	callstack 0
  3770                           
  3771 ;; *************** function _UART1_SetTxInterruptHandler *****************
  3772 ;; Defined at:
  3773 ;;		line 333 in file "mcc_generated_files/uart1.c"
  3774 ;; Parameters:    Size  Location     Type
  3775 ;;  InterruptHan    3   20[COMRAM] PTR FTN()void 
  3776 ;;		 -> UART1_Transmit_ISR(1), 
  3777 ;; Auto vars:     Size  Location     Type
  3778 ;;		None
  3779 ;; Return value:  Size  Location     Type
  3780 ;;                  1    wreg      void 
  3781 ;; Registers used:
  3782 ;;		wreg, status,2, status,0
  3783 ;; Tracked objects:
  3784 ;;		On entry : 3F/39
  3785 ;;		On exit  : 3F/39
  3786 ;;		Unchanged: 3E/0
  3787 ;; Data sizes:     COMRAM   BANK0   BANK1   BANK2   BANK3   BANK4   BANK5   BANK6   BANK7   BANK8   BANK9  BANK10  BANK1
      +1  BANK12  BANK13  BANK14  BANK15  BANK16  BANK17  BANK18  BANK19  BANK20  BANK21  BANK22  BANK23  BANK24  BANK25  BANK2
      +6  BANK27  BANK28  BANK29  BANK30  BANK31
  3788 ;;      Params:         3       0       0       0       0       0       0       0       0       0       0       0       
      +0       0       0       0       0       0       0       0       0       0       0       0       0       0       0       
      +0       0       0       0       0       0
  3789 ;;      Locals:         0       0       0       0       0       0       0       0       0       0       0       0       
      +0       0       0       0       0       0       0       0       0       0       0       0       0       0       0       
      +0       0       0       0       0       0
  3790 ;;      Temps:          0       0       0       0       0       0       0       0       0       0       0       0       
      +0       0       0       0       0       0       0       0       0       0       0       0       0       0       0       
      +0       0       0       0       0       0
  3791 ;;      Totals:         3       0       0       0       0       0       0       0       0       0       0       0       
      +0       0       0       0       0       0       0       0       0       0       0       0       0       0       0       
      +0       0       0       0       0       0
  3792 ;;Total ram usage:        3 bytes
  3793 ;; Hardware stack levels used: 1
  3794 ;; Hardware stack levels required when called: 4
  3795 ;; This function calls:
  3796 ;;		Nothing
  3797 ;; This function is called by:
  3798 ;;		_UART1_Initialize
  3799 ;; This function uses a non-reentrant model
  3800 ;;
  3801                           
  3802                           	psect	text21
  3803  00320C                     __ptext21:
  3804                           	callstack 0
  3805  00320C                     _UART1_SetTxInterruptHandler:
  3806                           	callstack 24
  3807                           
  3808                           ; BSR set to: 57
  3809                           ;mcc_generated_files/uart1.c: 334:     UART1_TxInterruptHandler = InterruptHandler;
  3810                           
  3811                           ; BSR set to: 57
  3812                           ;incstack = 0
  3813  00320C  C015  F07E         	movff	UART1_SetTxInterruptHandler@InterruptHandler,_UART1_TxInterruptHandler
  3814  003210  C016  F07F         	movff	UART1_SetTxInterruptHandler@InterruptHandler+1,_UART1_TxInterruptHandler+1
  3815  003214  C017  F080         	movff	UART1_SetTxInterruptHandler@InterruptHandler+2,_UART1_TxInterruptHandler+2
  3816                           
  3817                           ; BSR set to: 57
  3818  003218  0012               	return		;funcret
  3819  00321A                     __end_of_UART1_SetTxInterruptHandler:
  3820                           	callstack 0
  3821                           
  3822 ;; *************** function _UART1_SetRxInterruptHandler *****************
  3823 ;; Defined at:
  3824 ;;		line 329 in file "mcc_generated_files/uart1.c"
  3825 ;; Parameters:    Size  Location     Type
  3826 ;;  InterruptHan    3   20[COMRAM] PTR FTN()void 
  3827 ;;		 -> UART1_Receive_ISR(1), 
  3828 ;; Auto vars:     Size  Location     Type
  3829 ;;		None
  3830 ;; Return value:  Size  Location     Type
  3831 ;;                  1    wreg      void 
  3832 ;; Registers used:
  3833 ;;		wreg, status,2, status,0
  3834 ;; Tracked objects:
  3835 ;;		On entry : 3F/39
  3836 ;;		On exit  : 3F/39
  3837 ;;		Unchanged: 3E/0
  3838 ;; Data sizes:     COMRAM   BANK0   BANK1   BANK2   BANK3   BANK4   BANK5   BANK6   BANK7   BANK8   BANK9  BANK10  BANK1
      +1  BANK12  BANK13  BANK14  BANK15  BANK16  BANK17  BANK18  BANK19  BANK20  BANK21  BANK22  BANK23  BANK24  BANK25  BANK2
      +6  BANK27  BANK28  BANK29  BANK30  BANK31
  3839 ;;      Params:         3       0       0       0       0       0       0       0       0       0       0       0       
      +0       0       0       0       0       0       0       0       0       0       0       0       0       0       0       
      +0       0       0       0       0       0
  3840 ;;      Locals:         0       0       0       0       0       0       0       0       0       0       0       0       
      +0       0       0       0       0       0       0       0       0       0       0       0       0       0       0       
      +0       0       0       0       0       0
  3841 ;;      Temps:          0       0       0       0       0       0       0       0       0       0       0       0       
      +0       0       0       0       0       0       0       0       0       0       0       0       0       0       0       
      +0       0       0       0       0       0
  3842 ;;      Totals:         3       0       0       0       0       0       0       0       0       0       0       0       
      +0       0       0       0       0       0       0       0       0       0       0       0       0       0       0       
      +0       0       0       0       0       0
  3843 ;;Total ram usage:        3 bytes
  3844 ;; Hardware stack levels used: 1
  3845 ;; Hardware stack levels required when called: 4
  3846 ;; This function calls:
  3847 ;;		Nothing
  3848 ;; This function is called by:
  3849 ;;		_UART1_Initialize
  3850 ;; This function uses a non-reentrant model
  3851 ;;
  3852                           
  3853                           	psect	text22
  3854  00321A                     __ptext22:
  3855                           	callstack 0
  3856  00321A                     _UART1_SetRxInterruptHandler:
  3857                           	callstack 24
  3858                           
  3859                           ; BSR set to: 57
  3860                           ;mcc_generated_files/uart1.c: 330:     UART1_RxInterruptHandler = InterruptHandler;
  3861                           
  3862                           ; BSR set to: 57
  3863                           ;incstack = 0
  3864  00321A  C015  F081         	movff	UART1_SetRxInterruptHandler@InterruptHandler,_UART1_RxInterruptHandler
  3865  00321E  C016  F082         	movff	UART1_SetRxInterruptHandler@InterruptHandler+1,_UART1_RxInterruptHandler+1
  3866  003222  C017  F083         	movff	UART1_SetRxInterruptHandler@InterruptHandler+2,_UART1_RxInterruptHandler+2
  3867                           
  3868                           ; BSR set to: 57
  3869  003226  0012               	return		;funcret
  3870  003228                     __end_of_UART1_SetRxInterruptHandler:
  3871                           	callstack 0
  3872                           
  3873 ;; *************** function _UART1_SetOverrunErrorHandler *****************
  3874 ;; Defined at:
  3875 ;;		line 319 in file "mcc_generated_files/uart1.c"
  3876 ;; Parameters:    Size  Location     Type
  3877 ;;  interruptHan    3   20[COMRAM] PTR FTN()void 
  3878 ;;		 -> UART1_DefaultOverrunErrorHandler(1), 
  3879 ;; Auto vars:     Size  Location     Type
  3880 ;;		None
  3881 ;; Return value:  Size  Location     Type
  3882 ;;                  1    wreg      void 
  3883 ;; Registers used:
  3884 ;;		wreg, status,2, status,0
  3885 ;; Tracked objects:
  3886 ;;		On entry : 3F/3D
  3887 ;;		On exit  : 3F/3D
  3888 ;;		Unchanged: 3E/0
  3889 ;; Data sizes:     COMRAM   BANK0   BANK1   BANK2   BANK3   BANK4   BANK5   BANK6   BANK7   BANK8   BANK9  BANK10  BANK1
      +1  BANK12  BANK13  BANK14  BANK15  BANK16  BANK17  BANK18  BANK19  BANK20  BANK21  BANK22  BANK23  BANK24  BANK25  BANK2
      +6  BANK27  BANK28  BANK29  BANK30  BANK31
  3890 ;;      Params:         3       0       0       0       0       0       0       0       0       0       0       0       
      +0       0       0       0       0       0       0       0       0       0       0       0       0       0       0       
      +0       0       0       0       0       0
  3891 ;;      Locals:         0       0       0       0       0       0       0       0       0       0       0       0       
      +0       0       0       0       0       0       0       0       0       0       0       0       0       0       0       
      +0       0       0       0       0       0
  3892 ;;      Temps:          0       0       0       0       0       0       0       0       0       0       0       0       
      +0       0       0       0       0       0       0       0       0       0       0       0       0       0       0       
      +0       0       0       0       0       0
  3893 ;;      Totals:         3       0       0       0       0       0       0       0       0       0       0       0       
      +0       0       0       0       0       0       0       0       0       0       0       0       0       0       0       
      +0       0       0       0       0       0
  3894 ;;Total ram usage:        3 bytes
  3895 ;; Hardware stack levels used: 1
  3896 ;; Hardware stack levels required when called: 4
  3897 ;; This function calls:
  3898 ;;		Nothing
  3899 ;; This function is called by:
  3900 ;;		_UART1_Initialize
  3901 ;; This function uses a non-reentrant model
  3902 ;;
  3903                           
  3904                           	psect	text23
  3905  003228                     __ptext23:
  3906                           	callstack 0
  3907  003228                     _UART1_SetOverrunErrorHandler:
  3908                           	callstack 24
  3909                           
  3910                           ; BSR set to: 61
  3911                           ;mcc_generated_files/uart1.c: 320:     UART1_OverrunErrorHandler = interruptHandler;
  3912                           
  3913                           ; BSR set to: 57
  3914                           ;incstack = 0
  3915  003228  C015  F072         	movff	UART1_SetOverrunErrorHandler@interruptHandler,_UART1_OverrunErrorHandler
  3916  00322C  C016  F073         	movff	UART1_SetOverrunErrorHandler@interruptHandler+1,_UART1_OverrunErrorHandler+1
  3917  003230  C017  F074         	movff	UART1_SetOverrunErrorHandler@interruptHandler+2,_UART1_OverrunErrorHandler+2
  3918                           
  3919                           ; BSR set to: 61
  3920  003234  0012               	return		;funcret
  3921  003236                     __end_of_UART1_SetOverrunErrorHandler:
  3922                           	callstack 0
  3923                           
  3924 ;; *************** function _UART1_SetFramingErrorHandler *****************
  3925 ;; Defined at:
  3926 ;;		line 315 in file "mcc_generated_files/uart1.c"
  3927 ;; Parameters:    Size  Location     Type
  3928 ;;  interruptHan    3   20[COMRAM] PTR FTN()void 
  3929 ;;		 -> UART1_DefaultFramingErrorHandler(1), 
  3930 ;; Auto vars:     Size  Location     Type
  3931 ;;		None
  3932 ;; Return value:  Size  Location     Type
  3933 ;;                  1    wreg      void 
  3934 ;; Registers used:
  3935 ;;		wreg, status,2, status,0
  3936 ;; Tracked objects:
  3937 ;;		On entry : 3F/3D
  3938 ;;		On exit  : 3F/3D
  3939 ;;		Unchanged: 3E/0
  3940 ;; Data sizes:     COMRAM   BANK0   BANK1   BANK2   BANK3   BANK4   BANK5   BANK6   BANK7   BANK8   BANK9  BANK10  BANK1
      +1  BANK12  BANK13  BANK14  BANK15  BANK16  BANK17  BANK18  BANK19  BANK20  BANK21  BANK22  BANK23  BANK24  BANK25  BANK2
      +6  BANK27  BANK28  BANK29  BANK30  BANK31
  3941 ;;      Params:         3       0       0       0       0       0       0       0       0       0       0       0       
      +0       0       0       0       0       0       0       0       0       0       0       0       0       0       0       
      +0       0       0       0       0       0
  3942 ;;      Locals:         0       0       0       0       0       0       0       0       0       0       0       0       
      +0       0       0       0       0       0       0       0       0       0       0       0       0       0       0       
      +0       0       0       0       0       0
  3943 ;;      Temps:          0       0       0       0       0       0       0       0       0       0       0       0       
      +0       0       0       0       0       0       0       0       0       0       0       0       0       0       0       
      +0       0       0       0       0       0
  3944 ;;      Totals:         3       0       0       0       0       0       0       0       0       0       0       0       
      +0       0       0       0       0       0       0       0       0       0       0       0       0       0       0       
      +0       0       0       0       0       0
  3945 ;;Total ram usage:        3 bytes
  3946 ;; Hardware stack levels used: 1
  3947 ;; Hardware stack levels required when called: 4
  3948 ;; This function calls:
  3949 ;;		Nothing
  3950 ;; This function is called by:
  3951 ;;		_UART1_Initialize
  3952 ;; This function uses a non-reentrant model
  3953 ;;
  3954                           
  3955                           	psect	text24
  3956  003236                     __ptext24:
  3957                           	callstack 0
  3958  003236                     _UART1_SetFramingErrorHandler:
  3959                           	callstack 24
  3960                           
  3961                           ; BSR set to: 61
  3962                           ;mcc_generated_files/uart1.c: 316:     UART1_FramingErrorHandler = interruptHandler;
  3963                           
  3964                           ; BSR set to: 61
  3965                           ;incstack = 0
  3966  003236  C015  F075         	movff	UART1_SetFramingErrorHandler@interruptHandler,_UART1_FramingErrorHandler
  3967  00323A  C016  F076         	movff	UART1_SetFramingErrorHandler@interruptHandler+1,_UART1_FramingErrorHandler+1
  3968  00323E  C017  F077         	movff	UART1_SetFramingErrorHandler@interruptHandler+2,_UART1_FramingErrorHandler+2
  3969                           
  3970                           ; BSR set to: 61
  3971  003242  0012               	return		;funcret
  3972  003244                     __end_of_UART1_SetFramingErrorHandler:
  3973                           	callstack 0
  3974                           
  3975 ;; *************** function _UART1_SetErrorHandler *****************
  3976 ;; Defined at:
  3977 ;;		line 323 in file "mcc_generated_files/uart1.c"
  3978 ;; Parameters:    Size  Location     Type
  3979 ;;  interruptHan    3   20[COMRAM] PTR FTN()void 
  3980 ;;		 -> UART1_DefaultErrorHandler(1), 
  3981 ;; Auto vars:     Size  Location     Type
  3982 ;;		None
  3983 ;; Return value:  Size  Location     Type
  3984 ;;                  1    wreg      void 
  3985 ;; Registers used:
  3986 ;;		wreg, status,2, status,0
  3987 ;; Tracked objects:
  3988 ;;		On entry : 3F/3D
  3989 ;;		On exit  : 3F/3D
  3990 ;;		Unchanged: 3E/0
  3991 ;; Data sizes:     COMRAM   BANK0   BANK1   BANK2   BANK3   BANK4   BANK5   BANK6   BANK7   BANK8   BANK9  BANK10  BANK1
      +1  BANK12  BANK13  BANK14  BANK15  BANK16  BANK17  BANK18  BANK19  BANK20  BANK21  BANK22  BANK23  BANK24  BANK25  BANK2
      +6  BANK27  BANK28  BANK29  BANK30  BANK31
  3992 ;;      Params:         3       0       0       0       0       0       0       0       0       0       0       0       
      +0       0       0       0       0       0       0       0       0       0       0       0       0       0       0       
      +0       0       0       0       0       0
  3993 ;;      Locals:         0       0       0       0       0       0       0       0       0       0       0       0       
      +0       0       0       0       0       0       0       0       0       0       0       0       0       0       0       
      +0       0       0       0       0       0
  3994 ;;      Temps:          0       0       0       0       0       0       0       0       0       0       0       0       
      +0       0       0       0       0       0       0       0       0       0       0       0       0       0       0       
      +0       0       0       0       0       0
  3995 ;;      Totals:         3       0       0       0       0       0       0       0       0       0       0       0       
      +0       0       0       0       0       0       0       0       0       0       0       0       0       0       0       
      +0       0       0       0       0       0
  3996 ;;Total ram usage:        3 bytes
  3997 ;; Hardware stack levels used: 1
  3998 ;; Hardware stack levels required when called: 4
  3999 ;; This function calls:
  4000 ;;		Nothing
  4001 ;; This function is called by:
  4002 ;;		_UART1_Initialize
  4003 ;; This function uses a non-reentrant model
  4004 ;;
  4005                           
  4006                           	psect	text25
  4007  003244                     __ptext25:
  4008                           	callstack 0
  4009  003244                     _UART1_SetErrorHandler:
  4010                           	callstack 24
  4011                           
  4012                           ; BSR set to: 61
  4013                           ;mcc_generated_files/uart1.c: 324:     UART1_ErrorHandler = interruptHandler;
  4014                           
  4015                           ; BSR set to: 61
  4016                           ;incstack = 0
  4017  003244  C015  F06F         	movff	UART1_SetErrorHandler@interruptHandler,_UART1_ErrorHandler
  4018  003248  C016  F070         	movff	UART1_SetErrorHandler@interruptHandler+1,_UART1_ErrorHandler+1
  4019  00324C  C017  F071         	movff	UART1_SetErrorHandler@interruptHandler+2,_UART1_ErrorHandler+2
  4020                           
  4021                           ; BSR set to: 61
  4022  003250  0012               	return		;funcret
  4023  003252                     __end_of_UART1_SetErrorHandler:
  4024                           	callstack 0
  4025                           
  4026 ;; *************** function _TMR6_Initialize *****************
  4027 ;; Defined at:
  4028 ;;		line 65 in file "mcc_generated_files/tmr6.c"
  4029 ;; Parameters:    Size  Location     Type
  4030 ;;		None
  4031 ;; Auto vars:     Size  Location     Type
  4032 ;;		None
  4033 ;; Return value:  Size  Location     Type
  4034 ;;                  1    wreg      void 
  4035 ;; Registers used:
  4036 ;;		wreg, status,2, status,0, cstack
  4037 ;; Tracked objects:
  4038 ;;		On entry : 3F/39
  4039 ;;		On exit  : 3B/39
  4040 ;;		Unchanged: 0/0
  4041 ;; Data sizes:     COMRAM   BANK0   BANK1   BANK2   BANK3   BANK4   BANK5   BANK6   BANK7   BANK8   BANK9  BANK10  BANK1
      +1  BANK12  BANK13  BANK14  BANK15  BANK16  BANK17  BANK18  BANK19  BANK20  BANK21  BANK22  BANK23  BANK24  BANK25  BANK2
      +6  BANK27  BANK28  BANK29  BANK30  BANK31
  4042 ;;      Params:         0       0       0       0       0       0       0       0       0       0       0       0       
      +0       0       0       0       0       0       0       0       0       0       0       0       0       0       0       
      +0       0       0       0       0       0
  4043 ;;      Locals:         0       0       0       0       0       0       0       0       0       0       0       0       
      +0       0       0       0       0       0       0       0       0       0       0       0       0       0       0       
      +0       0       0       0       0       0
  4044 ;;      Temps:          0       0       0       0       0       0       0       0       0       0       0       0       
      +0       0       0       0       0       0       0       0       0       0       0       0       0       0       0       
      +0       0       0       0       0       0
  4045 ;;      Totals:         0       0       0       0       0       0       0       0       0       0       0       0       
      +0       0       0       0       0       0       0       0       0       0       0       0       0       0       0       
      +0       0       0       0       0       0
  4046 ;;Total ram usage:        0 bytes
  4047 ;; Hardware stack levels used: 1
  4048 ;; Hardware stack levels required when called: 5
  4049 ;; This function calls:
  4050 ;;		_TMR6_SetInterruptHandler
  4051 ;; This function is called by:
  4052 ;;		_SYSTEM_Initialize
  4053 ;; This function uses a non-reentrant model
  4054 ;;
  4055                           
  4056                           	psect	text26
  4057  003076                     __ptext26:
  4058                           	callstack 0
  4059  003076                     _TMR6_Initialize:
  4060                           	callstack 24
  4061                           
  4062                           ; BSR set to: 57
  4063                           ;mcc_generated_files/tmr6.c: 70:     T6CLKCON = 0x01;
  4064                           
  4065                           ; BSR set to: 61
  4066                           ;incstack = 0
  4067  003076  0E01               	movlw	1
  4068  003078  6E96               	movwf	150,c	;volatile
  4069                           
  4070                           ;mcc_generated_files/tmr6.c: 73:     T6HLT = 0x20;
  4071  00307A  0E20               	movlw	32
  4072  00307C  6E95               	movwf	149,c	;volatile
  4073                           
  4074                           ;mcc_generated_files/tmr6.c: 76:     T6RST = 0x00;
  4075  00307E  0E00               	movlw	0
  4076  003080  6E97               	movwf	151,c	;volatile
  4077                           
  4078                           ;mcc_generated_files/tmr6.c: 79:     T6PR = 0x4D;
  4079  003082  0E4D               	movlw	77
  4080  003084  6E93               	movwf	147,c	;volatile
  4081                           
  4082                           ;mcc_generated_files/tmr6.c: 82:     T6TMR = 0x00;
  4083  003086  0E00               	movlw	0
  4084  003088  6E92               	movwf	146,c	;volatile
  4085                           
  4086                           ; BSR set to: 57
  4087                           ;mcc_generated_files/tmr6.c: 85:     PIR9bits.TMR6IF = 0;
  4088  00308A  91A9               	bcf	169,0,b	;volatile
  4089                           
  4090                           ; BSR set to: 57
  4091                           ;mcc_generated_files/tmr6.c: 88:     PIE9bits.TMR6IE = 1;
  4092  00308C  8199               	bsf	153,0,b	;volatile
  4093                           
  4094                           ; BSR set to: 57
  4095                           ;mcc_generated_files/tmr6.c: 91:     TMR6_SetInterruptHandler(TMR6_DefaultInterruptHandl
      +                          er);
  4096  00308E  0EA4               	movlw	low _TMR6_DefaultInterruptHandler
  4097  003090  6E15               	movwf	TMR6_SetInterruptHandler@InterruptHandler^0,c
  4098  003092  0E32               	movlw	high _TMR6_DefaultInterruptHandler
  4099  003094  6E16               	movwf	(TMR6_SetInterruptHandler@InterruptHandler+1)^0,c
  4100  003096  0E00               	movlw	low (_TMR6_DefaultInterruptHandler shr (0+16))
  4101  003098  6E17               	movwf	(TMR6_SetInterruptHandler@InterruptHandler+2)^0,c
  4102  00309A  EC29  F019         	call	_TMR6_SetInterruptHandler	;wreg free
  4103                           
  4104                           ;mcc_generated_files/tmr6.c: 94:     T6CON = 0xFF;
  4105  00309E  6894               	setf	148,c	;volatile
  4106  0030A0  0012               	return		;funcret
  4107  0030A2                     __end_of_TMR6_Initialize:
  4108                           	callstack 0
  4109                           
  4110 ;; *************** function _TMR6_SetInterruptHandler *****************
  4111 ;; Defined at:
  4112 ;;		line 194 in file "mcc_generated_files/tmr6.c"
  4113 ;; Parameters:    Size  Location     Type
  4114 ;;  InterruptHan    3   20[COMRAM] PTR FTN()void 
  4115 ;;		 -> Led_Blink(1), TMR6_DefaultInterruptHandler(1), 
  4116 ;; Auto vars:     Size  Location     Type
  4117 ;;		None
  4118 ;; Return value:  Size  Location     Type
  4119 ;;                  1    wreg      void 
  4120 ;; Registers used:
  4121 ;;		wreg, status,2, status,0
  4122 ;; Tracked objects:
  4123 ;;		On entry : 3B/3D
  4124 ;;		On exit  : 3B/39
  4125 ;;		Unchanged: 3A/0
  4126 ;; Data sizes:     COMRAM   BANK0   BANK1   BANK2   BANK3   BANK4   BANK5   BANK6   BANK7   BANK8   BANK9  BANK10  BANK1
      +1  BANK12  BANK13  BANK14  BANK15  BANK16  BANK17  BANK18  BANK19  BANK20  BANK21  BANK22  BANK23  BANK24  BANK25  BANK2
      +6  BANK27  BANK28  BANK29  BANK30  BANK31
  4127 ;;      Params:         3       0       0       0       0       0       0       0       0       0       0       0       
      +0       0       0       0       0       0       0       0       0       0       0       0       0       0       0       
      +0       0       0       0       0       0
  4128 ;;      Locals:         0       0       0       0       0       0       0       0       0       0       0       0       
      +0       0       0       0       0       0       0       0       0       0       0       0       0       0       0       
      +0       0       0       0       0       0
  4129 ;;      Temps:          0       0       0       0       0       0       0       0       0       0       0       0       
      +0       0       0       0       0       0       0       0       0       0       0       0       0       0       0       
      +0       0       0       0       0       0
  4130 ;;      Totals:         3       0       0       0       0       0       0       0       0       0       0       0       
      +0       0       0       0       0       0       0       0       0       0       0       0       0       0       0       
      +0       0       0       0       0       0
  4131 ;;Total ram usage:        3 bytes
  4132 ;; Hardware stack levels used: 1
  4133 ;; Hardware stack levels required when called: 4
  4134 ;; This function calls:
  4135 ;;		Nothing
  4136 ;; This function is called by:
  4137 ;;		_TMR6_Initialize
  4138 ;;		_main
  4139 ;; This function uses a non-reentrant model
  4140 ;;
  4141                           
  4142                           	psect	text27
  4143  003252                     __ptext27:
  4144                           	callstack 0
  4145  003252                     _TMR6_SetInterruptHandler:
  4146                           	callstack 26
  4147                           
  4148                           ;mcc_generated_files/tmr6.c: 195:     TMR6_InterruptHandler = InterruptHandler;
  4149                           
  4150                           ;incstack = 0
  4151  003252  C015  F078         	movff	TMR6_SetInterruptHandler@InterruptHandler,_TMR6_InterruptHandler
  4152  003256  C016  F079         	movff	TMR6_SetInterruptHandler@InterruptHandler+1,_TMR6_InterruptHandler+1
  4153  00325A  C017  F07A         	movff	TMR6_SetInterruptHandler@InterruptHandler+2,_TMR6_InterruptHandler+2
  4154  00325E  0012               	return		;funcret
  4155  003260                     __end_of_TMR6_SetInterruptHandler:
  4156                           	callstack 0
  4157                           
  4158 ;; *************** function _TMR5_Initialize *****************
  4159 ;; Defined at:
  4160 ;;		line 65 in file "mcc_generated_files/tmr5.c"
  4161 ;; Parameters:    Size  Location     Type
  4162 ;;		None
  4163 ;; Auto vars:     Size  Location     Type
  4164 ;;		None
  4165 ;; Return value:  Size  Location     Type
  4166 ;;                  1    wreg      void 
  4167 ;; Registers used:
  4168 ;;		wreg, status,2, status,0, cstack
  4169 ;; Tracked objects:
  4170 ;;		On entry : 3F/3E
  4171 ;;		On exit  : 3B/39
  4172 ;;		Unchanged: 0/0
  4173 ;; Data sizes:     COMRAM   BANK0   BANK1   BANK2   BANK3   BANK4   BANK5   BANK6   BANK7   BANK8   BANK9  BANK10  BANK1
      +1  BANK12  BANK13  BANK14  BANK15  BANK16  BANK17  BANK18  BANK19  BANK20  BANK21  BANK22  BANK23  BANK24  BANK25  BANK2
      +6  BANK27  BANK28  BANK29  BANK30  BANK31
  4174 ;;      Params:         0       0       0       0       0       0       0       0       0       0       0       0       
      +0       0       0       0       0       0       0       0       0       0       0       0       0       0       0       
      +0       0       0       0       0       0
  4175 ;;      Locals:         0       0       0       0       0       0       0       0       0       0       0       0       
      +0       0       0       0       0       0       0       0       0       0       0       0       0       0       0       
      +0       0       0       0       0       0
  4176 ;;      Temps:          2       0       0       0       0       0       0       0       0       0       0       0       
      +0       0       0       0       0       0       0       0       0       0       0       0       0       0       0       
      +0       0       0       0       0       0
  4177 ;;      Totals:         2       0       0       0       0       0       0       0       0       0       0       0       
      +0       0       0       0       0       0       0       0       0       0       0       0       0       0       0       
      +0       0       0       0       0       0
  4178 ;;Total ram usage:        2 bytes
  4179 ;; Hardware stack levels used: 1
  4180 ;; Hardware stack levels required when called: 5
  4181 ;; This function calls:
  4182 ;;		_TMR5_SetInterruptHandler
  4183 ;; This function is called by:
  4184 ;;		_SYSTEM_Initialize
  4185 ;; This function uses a non-reentrant model
  4186 ;;
  4187                           
  4188                           	psect	text28
  4189  002C4A                     __ptext28:
  4190                           	callstack 0
  4191  002C4A                     _TMR5_Initialize:
  4192                           	callstack 24
  4193                           
  4194                           ; BSR set to: 62
  4195                           ;mcc_generated_files/tmr5.c: 70:     T5GCON = 0x00;
  4196                           
  4197                           ;incstack = 0
  4198  002C4A  0E00               	movlw	0
  4199  002C4C  6E9B               	movwf	155,c	;volatile
  4200                           
  4201                           ;mcc_generated_files/tmr5.c: 73:     T5GATE = 0x00;
  4202  002C4E  0E00               	movlw	0
  4203  002C50  6E9C               	movwf	156,c	;volatile
  4204                           
  4205                           ;mcc_generated_files/tmr5.c: 76:     T5CLK = 0x02;
  4206  002C52  0E02               	movlw	2
  4207  002C54  6E9D               	movwf	157,c	;volatile
  4208                           
  4209                           ;mcc_generated_files/tmr5.c: 79:     TMR5H = 0x83;
  4210  002C56  0E83               	movlw	131
  4211  002C58  6E99               	movwf	153,c	;volatile
  4212                           
  4213                           ;mcc_generated_files/tmr5.c: 82:     TMR5L = 0x00;
  4214  002C5A  0E00               	movlw	0
  4215  002C5C  6E98               	movwf	152,c	;volatile
  4216                           
  4217                           ; BSR set to: 62
  4218                           ;mcc_generated_files/tmr5.c: 85:     PIR8bits.TMR5IF = 0;
  4219  002C5E  0139               	movlb	57	; () banked
  4220  002C60  9DA8               	bcf	168,6,b	;volatile
  4221                           
  4222                           ; BSR set to: 57
  4223                           ;mcc_generated_files/tmr5.c: 88:     timer5ReloadVal=(uint16_t)((TMR5H << 8) | TMR5L);
  4224  002C62  5098               	movf	152,w,c	;volatile
  4225  002C64  006F FE64  F018    	movff	16281,??_TMR5_Initialize	;volatile
  4226  002C6A  6A19               	clrf	(??_TMR5_Initialize+1)^0,c
  4227  002C6C  C018  F019         	movff	??_TMR5_Initialize,??_TMR5_Initialize+1
  4228  002C70  6A18               	clrf	??_TMR5_Initialize^0,c
  4229  002C72  1018               	iorwf	??_TMR5_Initialize^0,w,c
  4230  002C74  0100               	movlb	0	; () banked
  4231  002C76  6F86               	movwf	_timer5ReloadVal& (0+255),b	;volatile
  4232  002C78  5019               	movf	(??_TMR5_Initialize+1)^0,w,c
  4233  002C7A  6F87               	movwf	(_timer5ReloadVal+1)& (0+255),b	;volatile
  4234                           
  4235                           ; BSR set to: 0
  4236                           ;mcc_generated_files/tmr5.c: 91:     PIE8bits.TMR5IE = 1;
  4237  002C7C  0139               	movlb	57	; () banked
  4238  002C7E  8D98               	bsf	152,6,b	;volatile
  4239                           
  4240                           ; BSR set to: 57
  4241                           ;mcc_generated_files/tmr5.c: 94:     TMR5_SetInterruptHandler(TMR5_DefaultInterruptHandl
      +                          er);
  4242  002C80  0EAE               	movlw	low _TMR5_DefaultInterruptHandler
  4243  002C82  6E15               	movwf	TMR5_SetInterruptHandler@InterruptHandler^0,c
  4244  002C84  0E32               	movlw	high _TMR5_DefaultInterruptHandler
  4245  002C86  6E16               	movwf	(TMR5_SetInterruptHandler@InterruptHandler+1)^0,c
  4246  002C88  0E00               	movlw	low (_TMR5_DefaultInterruptHandler shr (0+16))
  4247  002C8A  6E17               	movwf	(TMR5_SetInterruptHandler@InterruptHandler+2)^0,c
  4248  002C8C  EC30  F019         	call	_TMR5_SetInterruptHandler	;wreg free
  4249                           
  4250                           ;mcc_generated_files/tmr5.c: 97:     T5CON = 0x01;
  4251  002C90  0E01               	movlw	1
  4252  002C92  6E9A               	movwf	154,c	;volatile
  4253  002C94  0012               	return		;funcret
  4254  002C96                     __end_of_TMR5_Initialize:
  4255                           	callstack 0
  4256                           
  4257 ;; *************** function _TMR5_SetInterruptHandler *****************
  4258 ;; Defined at:
  4259 ;;		line 179 in file "mcc_generated_files/tmr5.c"
  4260 ;; Parameters:    Size  Location     Type
  4261 ;;  InterruptHan    3   20[COMRAM] PTR FTN()void 
  4262 ;;		 -> Timers_Isr(1), TMR5_DefaultInterruptHandler(1), 
  4263 ;; Auto vars:     Size  Location     Type
  4264 ;;		None
  4265 ;; Return value:  Size  Location     Type
  4266 ;;                  1    wreg      void 
  4267 ;; Registers used:
  4268 ;;		wreg, status,2, status,0
  4269 ;; Tracked objects:
  4270 ;;		On entry : 3B/3D
  4271 ;;		On exit  : 3B/39
  4272 ;;		Unchanged: 3A/0
  4273 ;; Data sizes:     COMRAM   BANK0   BANK1   BANK2   BANK3   BANK4   BANK5   BANK6   BANK7   BANK8   BANK9  BANK10  BANK1
      +1  BANK12  BANK13  BANK14  BANK15  BANK16  BANK17  BANK18  BANK19  BANK20  BANK21  BANK22  BANK23  BANK24  BANK25  BANK2
      +6  BANK27  BANK28  BANK29  BANK30  BANK31
  4274 ;;      Params:         3       0       0       0       0       0       0       0       0       0       0       0       
      +0       0       0       0       0       0       0       0       0       0       0       0       0       0       0       
      +0       0       0       0       0       0
  4275 ;;      Locals:         0       0       0       0       0       0       0       0       0       0       0       0       
      +0       0       0       0       0       0       0       0       0       0       0       0       0       0       0       
      +0       0       0       0       0       0
  4276 ;;      Temps:          0       0       0       0       0       0       0       0       0       0       0       0       
      +0       0       0       0       0       0       0       0       0       0       0       0       0       0       0       
      +0       0       0       0       0       0
  4277 ;;      Totals:         3       0       0       0       0       0       0       0       0       0       0       0       
      +0       0       0       0       0       0       0       0       0       0       0       0       0       0       0       
      +0       0       0       0       0       0
  4278 ;;Total ram usage:        3 bytes
  4279 ;; Hardware stack levels used: 1
  4280 ;; Hardware stack levels required when called: 4
  4281 ;; This function calls:
  4282 ;;		Nothing
  4283 ;; This function is called by:
  4284 ;;		_TMR5_Initialize
  4285 ;;		_main
  4286 ;; This function uses a non-reentrant model
  4287 ;;
  4288                           
  4289                           	psect	text29
  4290  003260                     __ptext29:
  4291                           	callstack 0
  4292  003260                     _TMR5_SetInterruptHandler:
  4293                           	callstack 26
  4294                           
  4295                           ;mcc_generated_files/tmr5.c: 180:     TMR5_InterruptHandler = InterruptHandler;
  4296                           
  4297                           ;incstack = 0
  4298  003260  C015  F06C         	movff	TMR5_SetInterruptHandler@InterruptHandler,_TMR5_InterruptHandler
  4299  003264  C016  F06D         	movff	TMR5_SetInterruptHandler@InterruptHandler+1,_TMR5_InterruptHandler+1
  4300  003268  C017  F06E         	movff	TMR5_SetInterruptHandler@InterruptHandler+2,_TMR5_InterruptHandler+2
  4301  00326C  0012               	return		;funcret
  4302  00326E                     __end_of_TMR5_SetInterruptHandler:
  4303                           	callstack 0
  4304                           
  4305 ;; *************** function _SPI1_Initialize *****************
  4306 ;; Defined at:
  4307 ;;		line 64 in file "mcc_generated_files/spi1.c"
  4308 ;; Parameters:    Size  Location     Type
  4309 ;;		None
  4310 ;; Auto vars:     Size  Location     Type
  4311 ;;		None
  4312 ;; Return value:  Size  Location     Type
  4313 ;;                  1    wreg      void 
  4314 ;; Registers used:
  4315 ;;		wreg, status,2
  4316 ;; Tracked objects:
  4317 ;;		On entry : 3F/39
  4318 ;;		On exit  : 3F/3D
  4319 ;;		Unchanged: 0/0
  4320 ;; Data sizes:     COMRAM   BANK0   BANK1   BANK2   BANK3   BANK4   BANK5   BANK6   BANK7   BANK8   BANK9  BANK10  BANK1
      +1  BANK12  BANK13  BANK14  BANK15  BANK16  BANK17  BANK18  BANK19  BANK20  BANK21  BANK22  BANK23  BANK24  BANK25  BANK2
      +6  BANK27  BANK28  BANK29  BANK30  BANK31
  4321 ;;      Params:         0       0       0       0       0       0       0       0       0       0       0       0       
      +0       0       0       0       0       0       0       0       0       0       0       0       0       0       0       
      +0       0       0       0       0       0
  4322 ;;      Locals:         0       0       0       0       0       0       0       0       0       0       0       0       
      +0       0       0       0       0       0       0       0       0       0       0       0       0       0       0       
      +0       0       0       0       0       0
  4323 ;;      Temps:          0       0       0       0       0       0       0       0       0       0       0       0       
      +0       0       0       0       0       0       0       0       0       0       0       0       0       0       0       
      +0       0       0       0       0       0
  4324 ;;      Totals:         0       0       0       0       0       0       0       0       0       0       0       0       
      +0       0       0       0       0       0       0       0       0       0       0       0       0       0       0       
      +0       0       0       0       0       0
  4325 ;;Total ram usage:        0 bytes
  4326 ;; Hardware stack levels used: 1
  4327 ;; Hardware stack levels required when called: 4
  4328 ;; This function calls:
  4329 ;;		Nothing
  4330 ;; This function is called by:
  4331 ;;		_SYSTEM_Initialize
  4332 ;; This function uses a non-reentrant model
  4333 ;;
  4334                           
  4335                           	psect	text30
  4336  0031DC                     __ptext30:
  4337                           	callstack 0
  4338  0031DC                     _SPI1_Initialize:
  4339                           	callstack 25
  4340                           
  4341                           ; BSR set to: 57
  4342                           ;mcc_generated_files/spi1.c: 67:     SPI1CON0 = 0x02;
  4343                           
  4344                           ;incstack = 0
  4345  0031DC  0E02               	movlw	2
  4346  0031DE  013D               	movlb	61	; () banked
  4347  0031E0  6F14               	movwf	20,b	;volatile
  4348                           
  4349                           ;mcc_generated_files/spi1.c: 69:     SPI1CON1 = 0x40;
  4350  0031E2  0E40               	movlw	64
  4351  0031E4  6F15               	movwf	21,b	;volatile
  4352                           
  4353                           ;mcc_generated_files/spi1.c: 71:     SPI1CON2 = 0x00;
  4354  0031E6  0E00               	movlw	0
  4355  0031E8  6F16               	movwf	22,b	;volatile
  4356                           
  4357                           ;mcc_generated_files/spi1.c: 73:     SPI1CLK = 0x00;
  4358  0031EA  0E00               	movlw	0
  4359  0031EC  6F1C               	movwf	28,b	;volatile
  4360                           
  4361                           ;mcc_generated_files/spi1.c: 75:     SPI1BAUD = 0x08;
  4362  0031EE  0E08               	movlw	8
  4363  0031F0  6F19               	movwf	25,b	;volatile
  4364                           
  4365                           ; BSR set to: 61
  4366                           ;mcc_generated_files/spi1.c: 76:     TRISCbits.TRISC3 = 0;
  4367  0031F2  96C4               	bcf	196,3,c	;volatile
  4368                           
  4369                           ; BSR set to: 61
  4370  0031F4  0012               	return		;funcret
  4371  0031F6                     __end_of_SPI1_Initialize:
  4372                           	callstack 0
  4373                           
  4374 ;; *************** function _PMD_Initialize *****************
  4375 ;; Defined at:
  4376 ;;		line 82 in file "mcc_generated_files/mcc.c"
  4377 ;; Parameters:    Size  Location     Type
  4378 ;;		None
  4379 ;; Auto vars:     Size  Location     Type
  4380 ;;		None
  4381 ;; Return value:  Size  Location     Type
  4382 ;;                  1    wreg      void 
  4383 ;; Registers used:
  4384 ;;		wreg, status,2
  4385 ;; Tracked objects:
  4386 ;;		On entry : 3F/39
  4387 ;;		On exit  : 3F/39
  4388 ;;		Unchanged: 0/0
  4389 ;; Data sizes:     COMRAM   BANK0   BANK1   BANK2   BANK3   BANK4   BANK5   BANK6   BANK7   BANK8   BANK9  BANK10  BANK1
      +1  BANK12  BANK13  BANK14  BANK15  BANK16  BANK17  BANK18  BANK19  BANK20  BANK21  BANK22  BANK23  BANK24  BANK25  BANK2
      +6  BANK27  BANK28  BANK29  BANK30  BANK31
  4390 ;;      Params:         0       0       0       0       0       0       0       0       0       0       0       0       
      +0       0       0       0       0       0       0       0       0       0       0       0       0       0       0       
      +0       0       0       0       0       0
  4391 ;;      Locals:         0       0       0       0       0       0       0       0       0       0       0       0       
      +0       0       0       0       0       0       0       0       0       0       0       0       0       0       0       
      +0       0       0       0       0       0
  4392 ;;      Temps:          0       0       0       0       0       0       0       0       0       0       0       0       
      +0       0       0       0       0       0       0       0       0       0       0       0       0       0       0       
      +0       0       0       0       0       0
  4393 ;;      Totals:         0       0       0       0       0       0       0       0       0       0       0       0       
      +0       0       0       0       0       0       0       0       0       0       0       0       0       0       0       
      +0       0       0       0       0       0
  4394 ;;Total ram usage:        0 bytes
  4395 ;; Hardware stack levels used: 1
  4396 ;; Hardware stack levels required when called: 4
  4397 ;; This function calls:
  4398 ;;		Nothing
  4399 ;; This function is called by:
  4400 ;;		_SYSTEM_Initialize
  4401 ;; This function uses a non-reentrant model
  4402 ;;
  4403                           
  4404                           	psect	text31
  4405  00313C                     __ptext31:
  4406                           	callstack 0
  4407  00313C                     _PMD_Initialize:
  4408                           	callstack 25
  4409                           
  4410                           ; BSR set to: 57
  4411                           ;mcc_generated_files/mcc.c: 85:     PMD0 = 0x00;
  4412                           
  4413                           ; BSR set to: 61
  4414                           ;incstack = 0
  4415  00313C  0E00               	movlw	0
  4416  00313E  6FC0               	movwf	192,b	;volatile
  4417                           
  4418                           ;mcc_generated_files/mcc.c: 87:     PMD1 = 0x00;
  4419  003140  0E00               	movlw	0
  4420  003142  6FC1               	movwf	193,b	;volatile
  4421                           
  4422                           ;mcc_generated_files/mcc.c: 89:     PMD2 = 0x00;
  4423  003144  0E00               	movlw	0
  4424  003146  6FC2               	movwf	194,b	;volatile
  4425                           
  4426                           ;mcc_generated_files/mcc.c: 91:     PMD3 = 0x00;
  4427  003148  0E00               	movlw	0
  4428  00314A  6FC3               	movwf	195,b	;volatile
  4429                           
  4430                           ;mcc_generated_files/mcc.c: 93:     PMD4 = 0x00;
  4431  00314C  0E00               	movlw	0
  4432  00314E  6FC4               	movwf	196,b	;volatile
  4433                           
  4434                           ;mcc_generated_files/mcc.c: 95:     PMD5 = 0x00;
  4435  003150  0E00               	movlw	0
  4436  003152  6FC5               	movwf	197,b	;volatile
  4437                           
  4438                           ;mcc_generated_files/mcc.c: 97:     PMD6 = 0x00;
  4439  003154  0E00               	movlw	0
  4440  003156  6FC6               	movwf	198,b	;volatile
  4441                           
  4442                           ;mcc_generated_files/mcc.c: 99:     PMD7 = 0x00;
  4443  003158  0E00               	movlw	0
  4444  00315A  6FC7               	movwf	199,b	;volatile
  4445                           
  4446                           ; BSR set to: 57
  4447  00315C  0012               	return		;funcret
  4448  00315E                     __end_of_PMD_Initialize:
  4449                           	callstack 0
  4450                           
  4451 ;; *************** function _PIN_MANAGER_Initialize *****************
  4452 ;; Defined at:
  4453 ;;		line 55 in file "mcc_generated_files/pin_manager.c"
  4454 ;; Parameters:    Size  Location     Type
  4455 ;;		None
  4456 ;; Auto vars:     Size  Location     Type
  4457 ;;		None
  4458 ;; Return value:  Size  Location     Type
  4459 ;;                  1    wreg      void 
  4460 ;; Registers used:
  4461 ;;		wreg, status,2
  4462 ;; Tracked objects:
  4463 ;;		On entry : 3F/39
  4464 ;;		On exit  : 3F/3A
  4465 ;;		Unchanged: 0/0
  4466 ;; Data sizes:     COMRAM   BANK0   BANK1   BANK2   BANK3   BANK4   BANK5   BANK6   BANK7   BANK8   BANK9  BANK10  BANK1
      +1  BANK12  BANK13  BANK14  BANK15  BANK16  BANK17  BANK18  BANK19  BANK20  BANK21  BANK22  BANK23  BANK24  BANK25  BANK2
      +6  BANK27  BANK28  BANK29  BANK30  BANK31
  4467 ;;      Params:         0       0       0       0       0       0       0       0       0       0       0       0       
      +0       0       0       0       0       0       0       0       0       0       0       0       0       0       0       
      +0       0       0       0       0       0
  4468 ;;      Locals:         0       0       0       0       0       0       0       0       0       0       0       0       
      +0       0       0       0       0       0       0       0       0       0       0       0       0       0       0       
      +0       0       0       0       0       0
  4469 ;;      Temps:          0       0       0       0       0       0       0       0       0       0       0       0       
      +0       0       0       0       0       0       0       0       0       0       0       0       0       0       0       
      +0       0       0       0       0       0
  4470 ;;      Totals:         0       0       0       0       0       0       0       0       0       0       0       0       
      +0       0       0       0       0       0       0       0       0       0       0       0       0       0       0       
      +0       0       0       0       0       0
  4471 ;;Total ram usage:        0 bytes
  4472 ;; Hardware stack levels used: 1
  4473 ;; Hardware stack levels required when called: 4
  4474 ;; This function calls:
  4475 ;;		Nothing
  4476 ;; This function is called by:
  4477 ;;		_SYSTEM_Initialize
  4478 ;; This function uses a non-reentrant model
  4479 ;;
  4480                           
  4481                           	psect	text32
  4482  0026C8                     __ptext32:
  4483                           	callstack 0
  4484  0026C8                     _PIN_MANAGER_Initialize:
  4485                           	callstack 25
  4486                           
  4487                           ; BSR set to: 57
  4488                           ;mcc_generated_files/pin_manager.c: 60:     LATE = 0x00;
  4489                           
  4490                           ; BSR set to: 57
  4491                           ;incstack = 0
  4492  0026C8  0E00               	movlw	0
  4493  0026CA  6EBE               	movwf	190,c	;volatile
  4494                           
  4495                           ;mcc_generated_files/pin_manager.c: 61:     LATD = 0x11;
  4496  0026CC  0E11               	movlw	17
  4497  0026CE  6EBD               	movwf	189,c	;volatile
  4498                           
  4499                           ;mcc_generated_files/pin_manager.c: 62:     LATA = 0x20;
  4500  0026D0  0E20               	movlw	32
  4501  0026D2  6EBA               	movwf	186,c	;volatile
  4502                           
  4503                           ;mcc_generated_files/pin_manager.c: 63:     LATF = 0x00;
  4504  0026D4  0E00               	movlw	0
  4505  0026D6  6EBF               	movwf	191,c	;volatile
  4506                           
  4507                           ;mcc_generated_files/pin_manager.c: 64:     LATB = 0x00;
  4508  0026D8  0E00               	movlw	0
  4509  0026DA  6EBB               	movwf	187,c	;volatile
  4510                           
  4511                           ;mcc_generated_files/pin_manager.c: 65:     LATC = 0x00;
  4512  0026DC  0E00               	movlw	0
  4513  0026DE  6EBC               	movwf	188,c	;volatile
  4514                           
  4515                           ;mcc_generated_files/pin_manager.c: 70:     TRISE = 0x02;
  4516  0026E0  0E02               	movlw	2
  4517  0026E2  6EC6               	movwf	198,c	;volatile
  4518                           
  4519                           ;mcc_generated_files/pin_manager.c: 71:     TRISF = 0x0F;
  4520  0026E4  0E0F               	movlw	15
  4521  0026E6  6EC7               	movwf	199,c	;volatile
  4522                           
  4523                           ;mcc_generated_files/pin_manager.c: 72:     TRISA = 0xDF;
  4524  0026E8  0EDF               	movlw	223
  4525  0026EA  6EC2               	movwf	194,c	;volatile
  4526                           
  4527                           ; BSR set to: 57
  4528                           ;mcc_generated_files/pin_manager.c: 73:     TRISB = 0xFF;
  4529  0026EC  68C3               	setf	195,c	;volatile
  4530                           
  4531                           ;mcc_generated_files/pin_manager.c: 74:     TRISC = 0x90;
  4532  0026EE  0E90               	movlw	144
  4533  0026F0  6EC4               	movwf	196,c	;volatile
  4534                           
  4535                           ;mcc_generated_files/pin_manager.c: 75:     TRISD = 0x0C;
  4536  0026F2  0E0C               	movlw	12
  4537  0026F4  6EC5               	movwf	197,c	;volatile
  4538                           
  4539                           ;mcc_generated_files/pin_manager.c: 80:     ANSELD = 0x0C;
  4540  0026F6  0E0C               	movlw	12
  4541  0026F8  013A               	movlb	58	; () banked
  4542  0026FA  6F70               	movwf	112,b	;volatile
  4543                           
  4544                           ;mcc_generated_files/pin_manager.c: 81:     ANSELC = 0x60;
  4545  0026FC  0E60               	movlw	96
  4546  0026FE  6F60               	movwf	96,b	;volatile
  4547                           
  4548                           ;mcc_generated_files/pin_manager.c: 82:     ANSELB = 0xFE;
  4549  002700  0EFE               	movlw	254
  4550  002702  6F50               	movwf	80,b	;volatile
  4551                           
  4552                           ;mcc_generated_files/pin_manager.c: 83:     ANSELE = 0x02;
  4553  002704  0E02               	movlw	2
  4554  002706  6F80               	movwf	128,b	;volatile
  4555                           
  4556                           ;mcc_generated_files/pin_manager.c: 84:     ANSELF = 0x0F;
  4557  002708  0E0F               	movlw	15
  4558  00270A  6F90               	movwf	144,b	;volatile
  4559                           
  4560                           ;mcc_generated_files/pin_manager.c: 85:     ANSELA = 0x8F;
  4561  00270C  0E8F               	movlw	143
  4562  00270E  6F40               	movwf	64,b	;volatile
  4563                           
  4564                           ;mcc_generated_files/pin_manager.c: 90:     WPUD = 0x00;
  4565  002710  0E00               	movlw	0
  4566  002712  6F71               	movwf	113,b	;volatile
  4567                           
  4568                           ;mcc_generated_files/pin_manager.c: 91:     WPUF = 0x00;
  4569  002714  0E00               	movlw	0
  4570  002716  6F91               	movwf	145,b	;volatile
  4571                           
  4572                           ;mcc_generated_files/pin_manager.c: 92:     WPUE = 0x00;
  4573  002718  0E00               	movlw	0
  4574  00271A  6F81               	movwf	129,b	;volatile
  4575                           
  4576                           ;mcc_generated_files/pin_manager.c: 93:     WPUB = 0x01;
  4577  00271C  0E01               	movlw	1
  4578  00271E  6F51               	movwf	81,b	;volatile
  4579                           
  4580                           ;mcc_generated_files/pin_manager.c: 94:     WPUA = 0x50;
  4581  002720  0E50               	movlw	80
  4582  002722  6F41               	movwf	65,b	;volatile
  4583                           
  4584                           ;mcc_generated_files/pin_manager.c: 95:     WPUC = 0x00;
  4585  002724  0E00               	movlw	0
  4586  002726  6F61               	movwf	97,b	;volatile
  4587                           
  4588                           ;mcc_generated_files/pin_manager.c: 100:     RB1I2C = 0x00;
  4589  002728  0E00               	movlw	0
  4590  00272A  6F5A               	movwf	90,b	;volatile
  4591                           
  4592                           ;mcc_generated_files/pin_manager.c: 101:     RB2I2C = 0x00;
  4593  00272C  0E00               	movlw	0
  4594  00272E  6F5B               	movwf	91,b	;volatile
  4595                           
  4596                           ;mcc_generated_files/pin_manager.c: 102:     RC3I2C = 0x00;
  4597  002730  0E00               	movlw	0
  4598  002732  6F6A               	movwf	106,b	;volatile
  4599                           
  4600                           ;mcc_generated_files/pin_manager.c: 103:     RC4I2C = 0x00;
  4601  002734  0E00               	movlw	0
  4602  002736  6F6B               	movwf	107,b	;volatile
  4603                           
  4604                           ;mcc_generated_files/pin_manager.c: 104:     RD0I2C = 0x00;
  4605  002738  0E00               	movlw	0
  4606  00273A  6F7A               	movwf	122,b	;volatile
  4607                           
  4608                           ;mcc_generated_files/pin_manager.c: 105:     RD1I2C = 0x00;
  4609  00273C  0E00               	movlw	0
  4610  00273E  6F7B               	movwf	123,b	;volatile
  4611                           
  4612                           ;mcc_generated_files/pin_manager.c: 110:     ODCONE = 0x00;
  4613  002740  0E00               	movlw	0
  4614  002742  6F82               	movwf	130,b	;volatile
  4615                           
  4616                           ;mcc_generated_files/pin_manager.c: 111:     ODCONF = 0x00;
  4617  002744  0E00               	movlw	0
  4618  002746  6F92               	movwf	146,b	;volatile
  4619                           
  4620                           ;mcc_generated_files/pin_manager.c: 112:     ODCONA = 0x00;
  4621  002748  0E00               	movlw	0
  4622  00274A  6F42               	movwf	66,b	;volatile
  4623                           
  4624                           ;mcc_generated_files/pin_manager.c: 113:     ODCONB = 0x00;
  4625  00274C  0E00               	movlw	0
  4626  00274E  6F52               	movwf	82,b	;volatile
  4627                           
  4628                           ;mcc_generated_files/pin_manager.c: 114:     ODCONC = 0x00;
  4629  002750  0E00               	movlw	0
  4630  002752  6F62               	movwf	98,b	;volatile
  4631                           
  4632                           ;mcc_generated_files/pin_manager.c: 115:     ODCOND = 0x00;
  4633  002754  0E00               	movlw	0
  4634  002756  6F72               	movwf	114,b	;volatile
  4635                           
  4636                           ; BSR set to: 58
  4637                           ;mcc_generated_files/pin_manager.c: 120:     SLRCONA = 0xFF;
  4638  002758  6943               	setf	67,b	;volatile
  4639                           
  4640                           ; BSR set to: 58
  4641                           ;mcc_generated_files/pin_manager.c: 121:     SLRCONB = 0xFF;
  4642  00275A  6953               	setf	83,b	;volatile
  4643                           
  4644                           ; BSR set to: 58
  4645                           ;mcc_generated_files/pin_manager.c: 122:     SLRCONC = 0xFF;
  4646  00275C  6963               	setf	99,b	;volatile
  4647                           
  4648                           ; BSR set to: 58
  4649                           ;mcc_generated_files/pin_manager.c: 123:     SLRCOND = 0xFF;
  4650  00275E  6973               	setf	115,b	;volatile
  4651                           
  4652                           ;mcc_generated_files/pin_manager.c: 124:     SLRCONE = 0x07;
  4653  002760  0E07               	movlw	7
  4654  002762  6F83               	movwf	131,b	;volatile
  4655                           
  4656                           ; BSR set to: 58
  4657                           ;mcc_generated_files/pin_manager.c: 125:     SLRCONF = 0xFF;
  4658  002764  6993               	setf	147,b	;volatile
  4659                           
  4660                           ; BSR set to: 58
  4661                           ;mcc_generated_files/pin_manager.c: 130:     INLVLA = 0xFF;
  4662  002766  6944               	setf	68,b	;volatile
  4663                           
  4664                           ; BSR set to: 58
  4665                           ;mcc_generated_files/pin_manager.c: 131:     INLVLB = 0xFF;
  4666  002768  6954               	setf	84,b	;volatile
  4667                           
  4668                           ; BSR set to: 58
  4669                           ;mcc_generated_files/pin_manager.c: 132:     INLVLC = 0xFF;
  4670  00276A  6964               	setf	100,b	;volatile
  4671                           
  4672                           ; BSR set to: 58
  4673                           ;mcc_generated_files/pin_manager.c: 133:     INLVLD = 0xFF;
  4674  00276C  6974               	setf	116,b	;volatile
  4675                           
  4676                           ;mcc_generated_files/pin_manager.c: 134:     INLVLE = 0x0F;
  4677  00276E  0E0F               	movlw	15
  4678  002770  6F84               	movwf	132,b	;volatile
  4679                           
  4680                           ; BSR set to: 58
  4681                           ;mcc_generated_files/pin_manager.c: 135:     INLVLF = 0xFF;
  4682  002772  6994               	setf	148,b	;volatile
  4683                           
  4684                           ;mcc_generated_files/pin_manager.c: 144:     SPI1SCKPPS = 0x13;
  4685  002774  0E13               	movlw	19
  4686  002776  6FDE               	movwf	222,b	;volatile
  4687                           
  4688                           ;mcc_generated_files/pin_manager.c: 145:     RC3PPS = 0x1E;
  4689  002778  0E1E               	movlw	30
  4690  00277A  6F13               	movwf	19,b	;volatile
  4691                           
  4692                           ;mcc_generated_files/pin_manager.c: 146:     RC5PPS = 0x1F;
  4693  00277C  0E1F               	movlw	31
  4694  00277E  6F15               	movwf	21,b	;volatile
  4695                           
  4696                           ;mcc_generated_files/pin_manager.c: 147:     RC6PPS = 0x13;
  4697  002780  0E13               	movlw	19
  4698  002782  6F16               	movwf	22,b	;volatile
  4699                           
  4700                           ;mcc_generated_files/pin_manager.c: 148:     U1RXPPS = 0x17;
  4701  002784  0E17               	movlw	23
  4702  002786  6FE5               	movwf	229,b	;volatile
  4703                           
  4704                           ;mcc_generated_files/pin_manager.c: 149:     SPI1SDIPPS = 0x14;
  4705  002788  0E14               	movlw	20
  4706  00278A  6FDF               	movwf	223,b	;volatile
  4707                           
  4708                           ; BSR set to: 58
  4709  00278C  0012               	return		;funcret
  4710  00278E                     __end_of_PIN_MANAGER_Initialize:
  4711                           	callstack 0
  4712                           
  4713 ;; *************** function _OSCILLATOR_Initialize *****************
  4714 ;; Defined at:
  4715 ;;		line 64 in file "mcc_generated_files/mcc.c"
  4716 ;; Parameters:    Size  Location     Type
  4717 ;;		None
  4718 ;; Auto vars:     Size  Location     Type
  4719 ;;		None
  4720 ;; Return value:  Size  Location     Type
  4721 ;;                  1    wreg      void 
  4722 ;; Registers used:
  4723 ;;		wreg, status,2
  4724 ;; Tracked objects:
  4725 ;;		On entry : 3F/3A
  4726 ;;		On exit  : 3F/39
  4727 ;;		Unchanged: 0/0
  4728 ;; Data sizes:     COMRAM   BANK0   BANK1   BANK2   BANK3   BANK4   BANK5   BANK6   BANK7   BANK8   BANK9  BANK10  BANK1
      +1  BANK12  BANK13  BANK14  BANK15  BANK16  BANK17  BANK18  BANK19  BANK20  BANK21  BANK22  BANK23  BANK24  BANK25  BANK2
      +6  BANK27  BANK28  BANK29  BANK30  BANK31
  4729 ;;      Params:         0       0       0       0       0       0       0       0       0       0       0       0       
      +0       0       0       0       0       0       0       0       0       0       0       0       0       0       0       
      +0       0       0       0       0       0
  4730 ;;      Locals:         0       0       0       0       0       0       0       0       0       0       0       0       
      +0       0       0       0       0       0       0       0       0       0       0       0       0       0       0       
      +0       0       0       0       0       0
  4731 ;;      Temps:          0       0       0       0       0       0       0       0       0       0       0       0       
      +0       0       0       0       0       0       0       0       0       0       0       0       0       0       0       
      +0       0       0       0       0       0
  4732 ;;      Totals:         0       0       0       0       0       0       0       0       0       0       0       0       
      +0       0       0       0       0       0       0       0       0       0       0       0       0       0       0       
      +0       0       0       0       0       0
  4733 ;;Total ram usage:        0 bytes
  4734 ;; Hardware stack levels used: 1
  4735 ;; Hardware stack levels required when called: 4
  4736 ;; This function calls:
  4737 ;;		Nothing
  4738 ;; This function is called by:
  4739 ;;		_SYSTEM_Initialize
  4740 ;; This function uses a non-reentrant model
  4741 ;;
  4742                           
  4743                           	psect	text33
  4744  0031C0                     __ptext33:
  4745                           	callstack 0
  4746  0031C0                     _OSCILLATOR_Initialize:
  4747                           	callstack 25
  4748                           
  4749                           ; BSR set to: 58
  4750                           ;mcc_generated_files/mcc.c: 67:     OSCCON1 = 0x20;
  4751                           
  4752                           ; BSR set to: 58
  4753                           ;incstack = 0
  4754  0031C0  0E20               	movlw	32
  4755  0031C2  0139               	movlb	57	; () banked
  4756  0031C4  6FD9               	movwf	217,b	;volatile
  4757                           
  4758                           ;mcc_generated_files/mcc.c: 69:     OSCCON3 = 0x00;
  4759  0031C6  0E00               	movlw	0
  4760  0031C8  6FDB               	movwf	219,b	;volatile
  4761                           
  4762                           ;mcc_generated_files/mcc.c: 71:     OSCEN = 0x00;
  4763  0031CA  0E00               	movlw	0
  4764  0031CC  6FDD               	movwf	221,b	;volatile
  4765                           
  4766                           ;mcc_generated_files/mcc.c: 73:     OSCFRQ = 0x05;
  4767  0031CE  0E05               	movlw	5
  4768  0031D0  6FDF               	movwf	223,b	;volatile
  4769                           
  4770                           ;mcc_generated_files/mcc.c: 75:     OSCTUNE = 0x00;
  4771  0031D2  0E00               	movlw	0
  4772  0031D4  6FDE               	movwf	222,b	;volatile
  4773  0031D6                     l185:
  4774                           
  4775                           ; BSR set to: 57
  4776                           ;mcc_generated_files/mcc.c: 77:     while(PLLR == 0)
  4777  0031D6  B1DC               	btfsc	220,0,b	;volatile
  4778  0031D8  0012               	return	
  4779  0031DA  D7FD               	goto	l185
  4780  0031DC                     __end_of_OSCILLATOR_Initialize:
  4781                           	callstack 0
  4782                           
  4783 ;; *************** function _INTERRUPT_Initialize *****************
  4784 ;; Defined at:
  4785 ;;		line 52 in file "mcc_generated_files/interrupt_manager.c"
  4786 ;; Parameters:    Size  Location     Type
  4787 ;;		None
  4788 ;; Auto vars:     Size  Location     Type
  4789 ;;  state           1   20[COMRAM] _Bool 
  4790 ;; Return value:  Size  Location     Type
  4791 ;;                  1    wreg      void 
  4792 ;; Registers used:
  4793 ;;		wreg, status,2
  4794 ;; Tracked objects:
  4795 ;;		On entry : 3F/0
  4796 ;;		On exit  : 3F/39
  4797 ;;		Unchanged: 0/0
  4798 ;; Data sizes:     COMRAM   BANK0   BANK1   BANK2   BANK3   BANK4   BANK5   BANK6   BANK7   BANK8   BANK9  BANK10  BANK1
      +1  BANK12  BANK13  BANK14  BANK15  BANK16  BANK17  BANK18  BANK19  BANK20  BANK21  BANK22  BANK23  BANK24  BANK25  BANK2
      +6  BANK27  BANK28  BANK29  BANK30  BANK31
  4799 ;;      Params:         0       0       0       0       0       0       0       0       0       0       0       0       
      +0       0       0       0       0       0       0       0       0       0       0       0       0       0       0       
      +0       0       0       0       0       0
  4800 ;;      Locals:         1       0       0       0       0       0       0       0       0       0       0       0       
      +0       0       0       0       0       0       0       0       0       0       0       0       0       0       0       
      +0       0       0       0       0       0
  4801 ;;      Temps:          0       0       0       0       0       0       0       0       0       0       0       0       
      +0       0       0       0       0       0       0       0       0       0       0       0       0       0       0       
      +0       0       0       0       0       0
  4802 ;;      Totals:         1       0       0       0       0       0       0       0       0       0       0       0       
      +0       0       0       0       0       0       0       0       0       0       0       0       0       0       0       
      +0       0       0       0       0       0
  4803 ;;Total ram usage:        1 bytes
  4804 ;; Hardware stack levels used: 1
  4805 ;; Hardware stack levels required when called: 4
  4806 ;; This function calls:
  4807 ;;		Nothing
  4808 ;; This function is called by:
  4809 ;;		_SYSTEM_Initialize
  4810 ;; This function uses a non-reentrant model
  4811 ;;
  4812                           
  4813                           	psect	text34
  4814  002D26                     __ptext34:
  4815                           	callstack 0
  4816  002D26                     _INTERRUPT_Initialize:
  4817                           	callstack 25
  4818                           
  4819                           ; BSR set to: 0
  4820                           ;mcc_generated_files/interrupt_manager.c: 54:     INTCON0bits.IPEN = 1;
  4821                           
  4822                           ; BSR set to: 57
  4823                           ;incstack = 0
  4824  002D26  8AD2               	bsf	210,5,c	;volatile
  4825                           
  4826                           ; BSR set to: 0
  4827                           ;mcc_generated_files/interrupt_manager.c: 56:     _Bool state = (unsigned char)GIE;
  4828  002D28  0E00               	movlw	0
  4829  002D2A  BED2               	btfsc	16338,7,c	;volatile
  4830  002D2C  0E01               	movlw	1
  4831  002D2E  6E15               	movwf	INTERRUPT_Initialize@state^0,c
  4832                           
  4833                           ; BSR set to: 0
  4834                           ;mcc_generated_files/interrupt_manager.c: 57:     GIE = 0;
  4835  002D30  9ED2               	bcf	16338,7,c	;volatile
  4836                           
  4837                           ;mcc_generated_files/interrupt_manager.c: 58:     IVTLOCK = 0x55;
  4838  002D32  0E55               	movlw	85
  4839  002D34  6ED4               	movwf	212,c	;volatile
  4840                           
  4841                           ;mcc_generated_files/interrupt_manager.c: 59:     IVTLOCK = 0xAA;
  4842  002D36  0EAA               	movlw	170
  4843  002D38  6ED4               	movwf	212,c	;volatile
  4844                           
  4845                           ; BSR set to: 0
  4846                           ;mcc_generated_files/interrupt_manager.c: 60:     IVTLOCKbits.IVTLOCKED = 0x00;
  4847  002D3A  90D4               	bcf	212,0,c	;volatile
  4848                           
  4849                           ;mcc_generated_files/interrupt_manager.c: 62:     IVTBASEU = 0;
  4850  002D3C  0E00               	movlw	0
  4851  002D3E  6ED7               	movwf	215,c	;volatile
  4852                           
  4853                           ;mcc_generated_files/interrupt_manager.c: 63:     IVTBASEH = 0;
  4854  002D40  0E00               	movlw	0
  4855  002D42  6ED6               	movwf	214,c	;volatile
  4856                           
  4857                           ;mcc_generated_files/interrupt_manager.c: 64:     IVTBASEL = 8;
  4858  002D44  0E08               	movlw	8
  4859  002D46  6ED5               	movwf	213,c	;volatile
  4860                           
  4861                           ;mcc_generated_files/interrupt_manager.c: 66:     IVTLOCK = 0x55;
  4862  002D48  0E55               	movlw	85
  4863  002D4A  6ED4               	movwf	212,c	;volatile
  4864                           
  4865                           ;mcc_generated_files/interrupt_manager.c: 67:     IVTLOCK = 0xAA;
  4866  002D4C  0EAA               	movlw	170
  4867  002D4E  6ED4               	movwf	212,c	;volatile
  4868                           
  4869                           ; BSR set to: 0
  4870                           ;mcc_generated_files/interrupt_manager.c: 68:     IVTLOCKbits.IVTLOCKED = 0x01;
  4871  002D50  80D4               	bsf	212,0,c	;volatile
  4872                           
  4873                           ; BSR set to: 0
  4874                           ;mcc_generated_files/interrupt_manager.c: 70:     GIE = state;
  4875  002D52  B015               	btfsc	INTERRUPT_Initialize@state^0,0,c
  4876  002D54  D002               	bra	u1965
  4877  002D56  9ED2               	bcf	16338,7,c	;volatile
  4878  002D58  D001               	bra	u1966
  4879  002D5A                     u1965:
  4880  002D5A  8ED2               	bsf	16338,7,c	;volatile
  4881  002D5C                     u1966:
  4882                           
  4883                           ;mcc_generated_files/interrupt_manager.c: 72:     IPR3bits.U1TXIP = 1;
  4884  002D5C  0139               	movlb	57	; () banked
  4885  002D5E  8983               	bsf	131,4,b	;volatile
  4886                           
  4887                           ; BSR set to: 57
  4888                           ;mcc_generated_files/interrupt_manager.c: 73:     IPR3bits.U1RXIP = 1;
  4889  002D60  8783               	bsf	131,3,b	;volatile
  4890                           
  4891                           ; BSR set to: 57
  4892                           ;mcc_generated_files/interrupt_manager.c: 74:     IPR9bits.TMR6IP = 1;
  4893  002D62  8189               	bsf	137,0,b	;volatile
  4894                           
  4895                           ; BSR set to: 57
  4896                           ;mcc_generated_files/interrupt_manager.c: 75:     IPR8bits.TMR5IP = 1;
  4897  002D64  8D88               	bsf	136,6,b	;volatile
  4898                           
  4899                           ; BSR set to: 57
  4900                           ;mcc_generated_files/interrupt_manager.c: 76:     IPR1bits.ADIP = 1;
  4901  002D66  8581               	bsf	129,2,b	;volatile
  4902                           
  4903                           ; BSR set to: 57
  4904  002D68  0012               	return		;funcret
  4905  002D6A                     __end_of_INTERRUPT_Initialize:
  4906                           	callstack 0
  4907                           
  4908 ;; *************** function _DAC1_Initialize *****************
  4909 ;; Defined at:
  4910 ;;		line 58 in file "mcc_generated_files/dac1.c"
  4911 ;; Parameters:    Size  Location     Type
  4912 ;;		None
  4913 ;; Auto vars:     Size  Location     Type
  4914 ;;		None
  4915 ;; Return value:  Size  Location     Type
  4916 ;;                  1    wreg      void 
  4917 ;; Registers used:
  4918 ;;		wreg, status,2
  4919 ;; Tracked objects:
  4920 ;;		On entry : 3B/39
  4921 ;;		On exit  : 3F/3E
  4922 ;;		Unchanged: 0/0
  4923 ;; Data sizes:     COMRAM   BANK0   BANK1   BANK2   BANK3   BANK4   BANK5   BANK6   BANK7   BANK8   BANK9  BANK10  BANK1
      +1  BANK12  BANK13  BANK14  BANK15  BANK16  BANK17  BANK18  BANK19  BANK20  BANK21  BANK22  BANK23  BANK24  BANK25  BANK2
      +6  BANK27  BANK28  BANK29  BANK30  BANK31
  4924 ;;      Params:         0       0       0       0       0       0       0       0       0       0       0       0       
      +0       0       0       0       0       0       0       0       0       0       0       0       0       0       0       
      +0       0       0       0       0       0
  4925 ;;      Locals:         0       0       0       0       0       0       0       0       0       0       0       0       
      +0       0       0       0       0       0       0       0       0       0       0       0       0       0       0       
      +0       0       0       0       0       0
  4926 ;;      Temps:          0       0       0       0       0       0       0       0       0       0       0       0       
      +0       0       0       0       0       0       0       0       0       0       0       0       0       0       0       
      +0       0       0       0       0       0
  4927 ;;      Totals:         0       0       0       0       0       0       0       0       0       0       0       0       
      +0       0       0       0       0       0       0       0       0       0       0       0       0       0       0       
      +0       0       0       0       0       0
  4928 ;;Total ram usage:        0 bytes
  4929 ;; Hardware stack levels used: 1
  4930 ;; Hardware stack levels required when called: 4
  4931 ;; This function calls:
  4932 ;;		Nothing
  4933 ;; This function is called by:
  4934 ;;		_SYSTEM_Initialize
  4935 ;; This function uses a non-reentrant model
  4936 ;;
  4937                           
  4938                           	psect	text35
  4939  00327C                     __ptext35:
  4940                           	callstack 0
  4941  00327C                     _DAC1_Initialize:
  4942                           	callstack 25
  4943                           
  4944                           ;mcc_generated_files/dac1.c: 61:     DAC1CON0 = 0xA4;
  4945                           
  4946                           ; BSR set to: 57
  4947                           ;incstack = 0
  4948  00327C  0EA4               	movlw	164
  4949  00327E  013E               	movlb	62	; () banked
  4950  003280  6F9E               	movwf	158,b	;volatile
  4951                           
  4952                           ;mcc_generated_files/dac1.c: 63:     DAC1CON1 = 0x1F;
  4953  003282  0E1F               	movlw	31
  4954  003284  6F9C               	movwf	156,b	;volatile
  4955                           
  4956                           ; BSR set to: 62
  4957  003286  0012               	return		;funcret
  4958  003288                     __end_of_DAC1_Initialize:
  4959                           	callstack 0
  4960                           
  4961 ;; *************** function _ADCC_Initialize *****************
  4962 ;; Defined at:
  4963 ;;		line 64 in file "mcc_generated_files/adcc.c"
  4964 ;; Parameters:    Size  Location     Type
  4965 ;;		None
  4966 ;; Auto vars:     Size  Location     Type
  4967 ;;		None
  4968 ;; Return value:  Size  Location     Type
  4969 ;;                  1    wreg      void 
  4970 ;; Registers used:
  4971 ;;		wreg, status,2, status,0, cstack
  4972 ;; Tracked objects:
  4973 ;;		On entry : 3B/39
  4974 ;;		On exit  : 3B/39
  4975 ;;		Unchanged: 0/0
  4976 ;; Data sizes:     COMRAM   BANK0   BANK1   BANK2   BANK3   BANK4   BANK5   BANK6   BANK7   BANK8   BANK9  BANK10  BANK1
      +1  BANK12  BANK13  BANK14  BANK15  BANK16  BANK17  BANK18  BANK19  BANK20  BANK21  BANK22  BANK23  BANK24  BANK25  BANK2
      +6  BANK27  BANK28  BANK29  BANK30  BANK31
  4977 ;;      Params:         0       0       0       0       0       0       0       0       0       0       0       0       
      +0       0       0       0       0       0       0       0       0       0       0       0       0       0       0       
      +0       0       0       0       0       0
  4978 ;;      Locals:         0       0       0       0       0       0       0       0       0       0       0       0       
      +0       0       0       0       0       0       0       0       0       0       0       0       0       0       0       
      +0       0       0       0       0       0
  4979 ;;      Temps:          0       0       0       0       0       0       0       0       0       0       0       0       
      +0       0       0       0       0       0       0       0       0       0       0       0       0       0       0       
      +0       0       0       0       0       0
  4980 ;;      Totals:         0       0       0       0       0       0       0       0       0       0       0       0       
      +0       0       0       0       0       0       0       0       0       0       0       0       0       0       0       
      +0       0       0       0       0       0
  4981 ;;Total ram usage:        0 bytes
  4982 ;; Hardware stack levels used: 1
  4983 ;; Hardware stack levels required when called: 5
  4984 ;; This function calls:
  4985 ;;		_ADCC_SetADIInterruptHandler
  4986 ;; This function is called by:
  4987 ;;		_SYSTEM_Initialize
  4988 ;; This function uses a non-reentrant model
  4989 ;;
  4990                           
  4991                           	psect	text36
  4992  002B88                     __ptext36:
  4993                           	callstack 0
  4994  002B88                     _ADCC_Initialize:
  4995                           	callstack 24
  4996                           
  4997                           ;mcc_generated_files/adcc.c: 68:     ADLTHL = 0x00;
  4998                           
  4999                           ; BSR set to: 62
  5000                           ;incstack = 0
  5001  002B88  0E00               	movlw	0
  5002  002B8A  013E               	movlb	62	; () banked
  5003  002B8C  6FDE               	movwf	222,b	;volatile
  5004                           
  5005                           ;mcc_generated_files/adcc.c: 70:     ADLTHH = 0x00;
  5006  002B8E  0E00               	movlw	0
  5007  002B90  6FDF               	movwf	223,b	;volatile
  5008                           
  5009                           ;mcc_generated_files/adcc.c: 72:     ADUTHL = 0x00;
  5010  002B92  0E00               	movlw	0
  5011  002B94  6FE0               	movwf	224,b	;volatile
  5012                           
  5013                           ;mcc_generated_files/adcc.c: 74:     ADUTHH = 0x00;
  5014  002B96  0E00               	movlw	0
  5015  002B98  6FE1               	movwf	225,b	;volatile
  5016                           
  5017                           ;mcc_generated_files/adcc.c: 76:     ADSTPTL = 0x00;
  5018  002B9A  0E00               	movlw	0
  5019  002B9C  6FE4               	movwf	228,b	;volatile
  5020                           
  5021                           ;mcc_generated_files/adcc.c: 78:     ADSTPTH = 0x00;
  5022  002B9E  0E00               	movlw	0
  5023  002BA0  6FE5               	movwf	229,b	;volatile
  5024                           
  5025                           ;mcc_generated_files/adcc.c: 80:     ADACCU = 0x00;
  5026  002BA2  0E00               	movlw	0
  5027  002BA4  6FEA               	movwf	234,b	;volatile
  5028                           
  5029                           ;mcc_generated_files/adcc.c: 82:     ADRPT = 0x00;
  5030  002BA6  0E00               	movlw	0
  5031  002BA8  6FEC               	movwf	236,b	;volatile
  5032                           
  5033                           ;mcc_generated_files/adcc.c: 84:     ADPCH = 0x00;
  5034  002BAA  0E00               	movlw	0
  5035  002BAC  6FF1               	movwf	241,b	;volatile
  5036                           
  5037                           ;mcc_generated_files/adcc.c: 86:     ADACQL = 0x10;
  5038  002BAE  0E10               	movlw	16
  5039  002BB0  6FF3               	movwf	243,b	;volatile
  5040                           
  5041                           ;mcc_generated_files/adcc.c: 88:     ADACQH = 0x00;
  5042  002BB2  0E00               	movlw	0
  5043  002BB4  6FF4               	movwf	244,b	;volatile
  5044                           
  5045                           ;mcc_generated_files/adcc.c: 90:     ADCAP = 0x00;
  5046  002BB6  0E00               	movlw	0
  5047  002BB8  6FF5               	movwf	245,b	;volatile
  5048                           
  5049                           ;mcc_generated_files/adcc.c: 92:     ADPREL = 0x00;
  5050  002BBA  0E00               	movlw	0
  5051  002BBC  6FF6               	movwf	246,b	;volatile
  5052                           
  5053                           ;mcc_generated_files/adcc.c: 94:     ADPREH = 0x00;
  5054  002BBE  0E00               	movlw	0
  5055  002BC0  6FF7               	movwf	247,b	;volatile
  5056                           
  5057                           ;mcc_generated_files/adcc.c: 96:     ADCON1 = 0x00;
  5058  002BC2  0E00               	movlw	0
  5059  002BC4  6FF9               	movwf	249,b	;volatile
  5060                           
  5061                           ;mcc_generated_files/adcc.c: 98:     ADCON2 = 0x00;
  5062  002BC6  0E00               	movlw	0
  5063  002BC8  6FFA               	movwf	250,b	;volatile
  5064                           
  5065                           ;mcc_generated_files/adcc.c: 100:     ADCON3 = 0x00;
  5066  002BCA  0E00               	movlw	0
  5067  002BCC  6FFB               	movwf	251,b	;volatile
  5068                           
  5069                           ;mcc_generated_files/adcc.c: 102:     ADSTAT = 0x00;
  5070  002BCE  0E00               	movlw	0
  5071  002BD0  6FFC               	movwf	252,b	;volatile
  5072                           
  5073                           ;mcc_generated_files/adcc.c: 104:     ADREF = 0x02;
  5074  002BD2  0E02               	movlw	2
  5075  002BD4  6FFD               	movwf	253,b	;volatile
  5076                           
  5077                           ;mcc_generated_files/adcc.c: 106:     ADACT = 0x07;
  5078  002BD6  0E07               	movlw	7
  5079  002BD8  6FFE               	movwf	254,b	;volatile
  5080                           
  5081                           ;mcc_generated_files/adcc.c: 108:     ADCLK = 0x00;
  5082  002BDA  0E00               	movlw	0
  5083  002BDC  6FFF               	movwf	255,b	;volatile
  5084                           
  5085                           ;mcc_generated_files/adcc.c: 110:     ADCON0 = 0x94;
  5086  002BDE  0E94               	movlw	148
  5087  002BE0  6FF8               	movwf	248,b	;volatile
  5088                           
  5089                           ; BSR set to: 62
  5090                           ;mcc_generated_files/adcc.c: 113:     PIR1bits.ADIF = 0;
  5091  002BE2  0139               	movlb	57	; () banked
  5092  002BE4  95A1               	bcf	161,2,b	;volatile
  5093                           
  5094                           ; BSR set to: 57
  5095                           ;mcc_generated_files/adcc.c: 115:     PIE1bits.ADIE = 1;
  5096  002BE6  8591               	bsf	145,2,b	;volatile
  5097                           
  5098                           ; BSR set to: 57
  5099                           ;mcc_generated_files/adcc.c: 117:     ADCC_SetADIInterruptHandler(ADCC_DefaultInterruptH
      +                          andler);
  5100  002BE8  0EA2               	movlw	low _ADCC_DefaultInterruptHandler
  5101  002BEA  6E15               	movwf	ADCC_SetADIInterruptHandler@InterruptHandler^0,c
  5102  002BEC  0E32               	movlw	high _ADCC_DefaultInterruptHandler
  5103  002BEE  6E16               	movwf	(ADCC_SetADIInterruptHandler@InterruptHandler+1)^0,c
  5104  002BF0  0E00               	movlw	low (_ADCC_DefaultInterruptHandler shr (0+16))
  5105  002BF2  6E17               	movwf	(ADCC_SetADIInterruptHandler@InterruptHandler+2)^0,c
  5106  002BF4  EC37  F019         	call	_ADCC_SetADIInterruptHandler	;wreg free
  5107  002BF8  0012               	return		;funcret
  5108  002BFA                     __end_of_ADCC_Initialize:
  5109                           	callstack 0
  5110                           
  5111 ;; *************** function _ADCC_SetADIInterruptHandler *****************
  5112 ;; Defined at:
  5113 ;;		line 316 in file "mcc_generated_files/adcc.c"
  5114 ;; Parameters:    Size  Location     Type
  5115 ;;  InterruptHan    3   20[COMRAM] PTR FTN()void 
  5116 ;;		 -> Adc_Isr(1), ADCC_DefaultInterruptHandler(1), 
  5117 ;; Auto vars:     Size  Location     Type
  5118 ;;		None
  5119 ;; Return value:  Size  Location     Type
  5120 ;;                  1    wreg      void 
  5121 ;; Registers used:
  5122 ;;		wreg, status,2, status,0
  5123 ;; Tracked objects:
  5124 ;;		On entry : 3B/3D
  5125 ;;		On exit  : 3B/39
  5126 ;;		Unchanged: 3A/0
  5127 ;; Data sizes:     COMRAM   BANK0   BANK1   BANK2   BANK3   BANK4   BANK5   BANK6   BANK7   BANK8   BANK9  BANK10  BANK1
      +1  BANK12  BANK13  BANK14  BANK15  BANK16  BANK17  BANK18  BANK19  BANK20  BANK21  BANK22  BANK23  BANK24  BANK25  BANK2
      +6  BANK27  BANK28  BANK29  BANK30  BANK31
  5128 ;;      Params:         3       0       0       0       0       0       0       0       0       0       0       0       
      +0       0       0       0       0       0       0       0       0       0       0       0       0       0       0       
      +0       0       0       0       0       0
  5129 ;;      Locals:         0       0       0       0       0       0       0       0       0       0       0       0       
      +0       0       0       0       0       0       0       0       0       0       0       0       0       0       0       
      +0       0       0       0       0       0
  5130 ;;      Temps:          0       0       0       0       0       0       0       0       0       0       0       0       
      +0       0       0       0       0       0       0       0       0       0       0       0       0       0       0       
      +0       0       0       0       0       0
  5131 ;;      Totals:         3       0       0       0       0       0       0       0       0       0       0       0       
      +0       0       0       0       0       0       0       0       0       0       0       0       0       0       0       
      +0       0       0       0       0       0
  5132 ;;Total ram usage:        3 bytes
  5133 ;; Hardware stack levels used: 1
  5134 ;; Hardware stack levels required when called: 4
  5135 ;; This function calls:
  5136 ;;		Nothing
  5137 ;; This function is called by:
  5138 ;;		_ADCC_Initialize
  5139 ;;		_main
  5140 ;; This function uses a non-reentrant model
  5141 ;;
  5142                           
  5143                           	psect	text37
  5144  00326E                     __ptext37:
  5145                           	callstack 0
  5146  00326E                     _ADCC_SetADIInterruptHandler:
  5147                           	callstack 24
  5148                           
  5149                           ;mcc_generated_files/adcc.c: 317:     ADCC_ADI_InterruptHandler = InterruptHandler;
  5150                           
  5151                           ;incstack = 0
  5152  00326E  C015  F07B         	movff	ADCC_SetADIInterruptHandler@InterruptHandler,_ADCC_ADI_InterruptHandler
  5153  003272  C016  F07C         	movff	ADCC_SetADIInterruptHandler@InterruptHandler+1,_ADCC_ADI_InterruptHandler+1
  5154  003276  C017  F07D         	movff	ADCC_SetADIInterruptHandler@InterruptHandler+2,_ADCC_ADI_InterruptHandler+2
  5155  00327A  0012               	return		;funcret
  5156  00327C                     __end_of_ADCC_SetADIInterruptHandler:
  5157                           	callstack 0
  5158                           
  5159 ;; *************** function _DAC1_SetOutput *****************
  5160 ;; Defined at:
  5161 ;;		line 66 in file "mcc_generated_files/dac1.c"
  5162 ;; Parameters:    Size  Location     Type
  5163 ;;  inputData       1    wreg     unsigned char 
  5164 ;; Auto vars:     Size  Location     Type
  5165 ;;  inputData       1   20[COMRAM] unsigned char 
  5166 ;; Return value:  Size  Location     Type
  5167 ;;                  1    wreg      void 
  5168 ;; Registers used:
  5169 ;;		wreg
  5170 ;; Tracked objects:
  5171 ;;		On entry : 2/3D
  5172 ;;		On exit  : 0/0
  5173 ;;		Unchanged: 0/0
  5174 ;; Data sizes:     COMRAM   BANK0   BANK1   BANK2   BANK3   BANK4   BANK5   BANK6   BANK7   BANK8   BANK9  BANK10  BANK1
      +1  BANK12  BANK13  BANK14  BANK15  BANK16  BANK17  BANK18  BANK19  BANK20  BANK21  BANK22  BANK23  BANK24  BANK25  BANK2
      +6  BANK27  BANK28  BANK29  BANK30  BANK31
  5175 ;;      Params:         0       0       0       0       0       0       0       0       0       0       0       0       
      +0       0       0       0       0       0       0       0       0       0       0       0       0       0       0       
      +0       0       0       0       0       0
  5176 ;;      Locals:         1       0       0       0       0       0       0       0       0       0       0       0       
      +0       0       0       0       0       0       0       0       0       0       0       0       0       0       0       
      +0       0       0       0       0       0
  5177 ;;      Temps:          0       0       0       0       0       0       0       0       0       0       0       0       
      +0       0       0       0       0       0       0       0       0       0       0       0       0       0       0       
      +0       0       0       0       0       0
  5178 ;;      Totals:         1       0       0       0       0       0       0       0       0       0       0       0       
      +0       0       0       0       0       0       0       0       0       0       0       0       0       0       0       
      +0       0       0       0       0       0
  5179 ;;Total ram usage:        1 bytes
  5180 ;; Hardware stack levels used: 1
  5181 ;; Hardware stack levels required when called: 4
  5182 ;; This function calls:
  5183 ;;		Nothing
  5184 ;; This function is called by:
  5185 ;;		_main
  5186 ;; This function uses a non-reentrant model
  5187 ;;
  5188                           
  5189                           	psect	text38
  5190  003292                     __ptext38:
  5191                           	callstack 0
  5192  003292                     _DAC1_SetOutput:
  5193                           	callstack 26
  5194                           
  5195                           ;incstack = 0
  5196                           ;DAC1_SetOutput@inputData stored from wreg
  5197  003292  6E15               	movwf	DAC1_SetOutput@inputData^0,c
  5198                           
  5199                           ;mcc_generated_files/dac1.c: 66: void DAC1_SetOutput(uint8_t inputData);mcc_generated_fi
      +                          les/dac1.c: 67: {;mcc_generated_files/dac1.c: 68:     DAC1CON1 = inputData;
  5200  003294  0060  F057  FE9C   	movff	DAC1_SetOutput@inputData,16028	;volatile
  5201  00329A  0012               	return		;funcret
  5202  00329C                     __end_of_DAC1_SetOutput:
  5203                           	callstack 0
  5204                           
  5205 ;; *************** function _ADCC_ISR *****************
  5206 ;; Defined at:
  5207 ;;		line 307 in file "mcc_generated_files/adcc.c"
  5208 ;; Parameters:    Size  Location     Type
  5209 ;;		None
  5210 ;; Auto vars:     Size  Location     Type
  5211 ;;		None
  5212 ;; Return value:  Size  Location     Type
  5213 ;;                  1    wreg      void 
  5214 ;; Registers used:
  5215 ;;		wreg, fsr2l, fsr2h, status,2, status,0, pcl, pclath, pclatu, tosl, prodl, prodh, cstack
  5216 ;; Tracked objects:
  5217 ;;		On entry : 0/0
  5218 ;;		On exit  : 0/0
  5219 ;;		Unchanged: 0/0
  5220 ;; Data sizes:     COMRAM   BANK0   BANK1   BANK2   BANK3   BANK4   BANK5   BANK6   BANK7   BANK8   BANK9  BANK10  BANK1
      +1  BANK12  BANK13  BANK14  BANK15  BANK16  BANK17  BANK18  BANK19  BANK20  BANK21  BANK22  BANK23  BANK24  BANK25  BANK2
      +6  BANK27  BANK28  BANK29  BANK30  BANK31
  5221 ;;      Params:         0       0       0       0       0       0       0       0       0       0       0       0       
      +0       0       0       0       0       0       0       0       0       0       0       0       0       0       0       
      +0       0       0       0       0       0
  5222 ;;      Locals:         0       0       0       0       0       0       0       0       0       0       0       0       
      +0       0       0       0       0       0       0       0       0       0       0       0       0       0       0       
      +0       0       0       0       0       0
  5223 ;;      Temps:          2       0       0       0       0       0       0       0       0       0       0       0       
      +0       0       0       0       0       0       0       0       0       0       0       0       0       0       0       
      +0       0       0       0       0       0
  5224 ;;      Totals:         2       0       0       0       0       0       0       0       0       0       0       0       
      +0       0       0       0       0       0       0       0       0       0       0       0       0       0       0       
      +0       0       0       0       0       0
  5225 ;;Total ram usage:        2 bytes
  5226 ;; Hardware stack levels used: 1
  5227 ;; Hardware stack levels required when called: 2
  5228 ;; This function calls:
  5229 ;;		Absolute function
  5230 ;;		_ADCC_DefaultInterruptHandler
  5231 ;;		_Adc_Isr
  5232 ;; This function is called by:
  5233 ;;		Interrupt level 2
  5234 ;; This function uses a non-reentrant model
  5235 ;;
  5236                           
  5237                           	psect	text39
  5238  002DAC                     __ptext39:
  5239                           	callstack 0
  5240  002DAC                     _ADCC_ISR:
  5241                           	callstack 19
  5242                           
  5243                           ;incstack = 0
  5244  002DAC  006F FFE8  F006    	movff	pclath,??_ADCC_ISR
  5245  002DB2  006F FFEC  F007    	movff	pclatu,??_ADCC_ISR+1
  5246                           
  5247                           ;mcc_generated_files/adcc.c: 310:     PIR1bits.ADIF = 0;
  5248  002DB8  0139               	movlb	57	; () banked
  5249  002DBA  95A1               	bcf	161,2,b	;volatile
  5250                           
  5251                           ; BSR set to: 57
  5252                           ;mcc_generated_files/adcc.c: 312:     if (ADCC_ADI_InterruptHandler)
  5253  002DBC  0100               	movlb	0	; () banked
  5254  002DBE  517B               	movf	_ADCC_ADI_InterruptHandler& (0+255),w,b
  5255  002DC0  117C               	iorwf	(_ADCC_ADI_InterruptHandler+1)& (0+255),w,b
  5256  002DC2  117D               	iorwf	(_ADCC_ADI_InterruptHandler+2)& (0+255),w,b
  5257  002DC4  B4D8               	btfsc	status,2,c
  5258  002DC6  D00C               	goto	i2u141_49
  5259                           
  5260                           ; BSR set to: 0
  5261                           ;mcc_generated_files/adcc.c: 313:             ADCC_ADI_InterruptHandler();
  5262  002DC8  D801               	call	i2u141_48
  5263  002DCA  D00A               	goto	i2u141_49
  5264  002DCC                     i2u141_48:
  5265  002DCC  0005               	push	
  5266  002DCE  6EFA               	movwf	pclath,c
  5267  002DD0  517B               	movf	_ADCC_ADI_InterruptHandler& (0+255),w,b
  5268  002DD2  6EFD               	movwf	tosl,c
  5269  002DD4  517C               	movf	(_ADCC_ADI_InterruptHandler+1)& (0+255),w,b
  5270  002DD6  6EFE               	movwf	tosh,c
  5271  002DD8  517D               	movf	(_ADCC_ADI_InterruptHandler+2)& (0+255),w,b
  5272  002DDA  6EFF               	movwf	tosu,c
  5273  002DDC  50FA               	movf	pclath,w,c
  5274  002DDE  0012               	return		;indir
  5275  002DE0                     i2u141_49:
  5276  002DE0  0060  F01F  FFFB   	movff	??_ADCC_ISR+1,pclatu
  5277  002DE6  0060  F01B  FFFA   	movff	??_ADCC_ISR,pclath
  5278  002DEC  0011               	retfie		f
  5279  002DEE                     __end_of_ADCC_ISR:
  5280                           	callstack 0
  5281                           
  5282 ;; *************** function _ADCC_DefaultInterruptHandler *****************
  5283 ;; Defined at:
  5284 ;;		line 320 in file "mcc_generated_files/adcc.c"
  5285 ;; Parameters:    Size  Location     Type
  5286 ;;		None
  5287 ;; Auto vars:     Size  Location     Type
  5288 ;;		None
  5289 ;; Return value:  Size  Location     Type
  5290 ;;                  1    wreg      void 
  5291 ;; Registers used:
  5292 ;;		None
  5293 ;; Tracked objects:
  5294 ;;		On entry : 3F/0
  5295 ;;		On exit  : 3F/0
  5296 ;;		Unchanged: 3F/0
  5297 ;; Data sizes:     COMRAM   BANK0   BANK1   BANK2   BANK3   BANK4   BANK5   BANK6   BANK7   BANK8   BANK9  BANK10  BANK1
      +1  BANK12  BANK13  BANK14  BANK15  BANK16  BANK17  BANK18  BANK19  BANK20  BANK21  BANK22  BANK23  BANK24  BANK25  BANK2
      +6  BANK27  BANK28  BANK29  BANK30  BANK31
  5298 ;;      Params:         0       0       0       0       0       0       0       0       0       0       0       0       
      +0       0       0       0       0       0       0       0       0       0       0       0       0       0       0       
      +0       0       0       0       0       0
  5299 ;;      Locals:         0       0       0       0       0       0       0       0       0       0       0       0       
      +0       0       0       0       0       0       0       0       0       0       0       0       0       0       0       
      +0       0       0       0       0       0
  5300 ;;      Temps:          0       0       0       0       0       0       0       0       0       0       0       0       
      +0       0       0       0       0       0       0       0       0       0       0       0       0       0       0       
      +0       0       0       0       0       0
  5301 ;;      Totals:         0       0       0       0       0       0       0       0       0       0       0       0       
      +0       0       0       0       0       0       0       0       0       0       0       0       0       0       0       
      +0       0       0       0       0       0
  5302 ;;Total ram usage:        0 bytes
  5303 ;; Hardware stack levels used: 1
  5304 ;; This function calls:
  5305 ;;		Nothing
  5306 ;; This function is called by:
  5307 ;;		_ADCC_Initialize
  5308 ;;		_ADCC_ISR
  5309 ;; This function uses a non-reentrant model
  5310 ;;
  5311                           
  5312                           	psect	text40
  5313  0032A2                     __ptext40:
  5314                           	callstack 0
  5315  0032A2                     _ADCC_DefaultInterruptHandler:
  5316                           	callstack 20
  5317                           
  5318                           ; BSR set to: 0
  5319                           
  5320                           ;incstack = 0
  5321  0032A2  0012               	return		;funcret
  5322  0032A4                     __end_of_ADCC_DefaultInterruptHandler:
  5323                           	callstack 0
  5324                           
  5325 ;; *************** function _Adc_Isr *****************
  5326 ;; Defined at:
  5327 ;;		line 78 in file "main.c"
  5328 ;; Parameters:    Size  Location     Type
  5329 ;;		None
  5330 ;; Auto vars:     Size  Location     Type
  5331 ;;		None
  5332 ;; Return value:  Size  Location     Type
  5333 ;;                  1    wreg      void 
  5334 ;; Registers used:
  5335 ;;		wreg, fsr2l, fsr2h, status,2, status,0, prodl, prodh, cstack
  5336 ;; Tracked objects:
  5337 ;;		On entry : 3F/0
  5338 ;;		On exit  : 3F/3E
  5339 ;;		Unchanged: 0/0
  5340 ;; Data sizes:     COMRAM   BANK0   BANK1   BANK2   BANK3   BANK4   BANK5   BANK6   BANK7   BANK8   BANK9  BANK10  BANK1
      +1  BANK12  BANK13  BANK14  BANK15  BANK16  BANK17  BANK18  BANK19  BANK20  BANK21  BANK22  BANK23  BANK24  BANK25  BANK2
      +6  BANK27  BANK28  BANK29  BANK30  BANK31
  5341 ;;      Params:         0       0       0       0       0       0       0       0       0       0       0       0       
      +0       0       0       0       0       0       0       0       0       0       0       0       0       0       0       
      +0       0       0       0       0       0
  5342 ;;      Locals:         0       0       0       0       0       0       0       0       0       0       0       0       
      +0       0       0       0       0       0       0       0       0       0       0       0       0       0       0       
      +0       0       0       0       0       0
  5343 ;;      Temps:          1       0       0       0       0       0       0       0       0       0       0       0       
      +0       0       0       0       0       0       0       0       0       0       0       0       0       0       0       
      +0       0       0       0       0       0
  5344 ;;      Totals:         1       0       0       0       0       0       0       0       0       0       0       0       
      +0       0       0       0       0       0       0       0       0       0       0       0       0       0       0       
      +0       0       0       0       0       0
  5345 ;;Total ram usage:        1 bytes
  5346 ;; Hardware stack levels used: 1
  5347 ;; Hardware stack levels required when called: 1
  5348 ;; This function calls:
  5349 ;;		_ADCC_GetConversionResult
  5350 ;; This function is called by:
  5351 ;;		_main
  5352 ;;		_ADCC_ISR
  5353 ;; This function uses a non-reentrant model
  5354 ;;
  5355                           
  5356                           	psect	text41
  5357  002FE0                     __ptext41:
  5358                           	callstack 0
  5359  002FE0                     _Adc_Isr:
  5360                           	callstack 19
  5361                           
  5362                           ; BSR set to: 0
  5363                           ;main.c: 80:  ana[adc_chan] = ADCC_GetConversionResult();
  5364                           
  5365                           ; BSR set to: 0
  5366                           ;incstack = 0
  5367  002FE0  ECFB  F018         	call	_ADCC_GetConversionResult	;wreg free
  5368  002FE4  5042               	movf	_adc_chan^0,w,c
  5369  002FE6  0D02               	mullw	2
  5370  002FE8  50F3               	movf	243,w,c
  5371  002FEA  0F38               	addlw	low _ana
  5372  002FEC  6ED9               	movwf	fsr2l,c
  5373  002FEE  6ADA               	clrf	fsr2h,c
  5374  002FF0  0060  F007  FFDE   	movff	?_ADCC_GetConversionResult,postinc2
  5375  002FF6  0060  F00B  FFDD   	movff	?_ADCC_GetConversionResult+1,postdec2
  5376                           
  5377                           ; BSR set to: 62
  5378                           ;main.c: 81:  if (adc_chan++ >= 2) {
  5379  002FFC  2A42               	incf	_adc_chan^0,f,c	;volatile
  5380  002FFE  0442               	decf	_adc_chan^0,w,c	;volatile
  5381  003000  6E05               	movwf	??_Adc_Isr^0,c
  5382  003002  0E01               	movlw	1
  5383  003004  6405               	cpfsgt	??_Adc_Isr^0,c
  5384  003006  D002               	goto	i2l2987
  5385                           
  5386                           ; BSR set to: 62
  5387                           ;main.c: 82:   adc_chan = 0;
  5388  003008  0E00               	movlw	0
  5389  00300A  6E42               	movwf	_adc_chan^0,c	;volatile
  5390  00300C                     i2l2987:
  5391                           
  5392                           ; BSR set to: 62
  5393                           ;main.c: 84:  ADPCH = adc_chan;
  5394  00300C  0060  F10B  FEF1   	movff	_adc_chan,16113	;volatile
  5395                           
  5396                           ;main.c: 88:  adc_tick = 1;
  5397  003012  0E01               	movlw	1
  5398  003014  6E43               	movwf	_adc_tick^0,c	;volatile
  5399                           
  5400                           ; BSR set to: 62
  5401  003016  0012               	return		;funcret
  5402  003018                     __end_of_Adc_Isr:
  5403                           	callstack 0
  5404                           
  5405 ;; *************** function _ADCC_GetConversionResult *****************
  5406 ;; Defined at:
  5407 ;;		line 139 in file "mcc_generated_files/adcc.c"
  5408 ;; Parameters:    Size  Location     Type
  5409 ;;		None
  5410 ;; Auto vars:     Size  Location     Type
  5411 ;;		None
  5412 ;; Return value:  Size  Location     Type
  5413 ;;                  2    0[COMRAM] unsigned short 
  5414 ;; Registers used:
  5415 ;;		wreg, status,2, status,0
  5416 ;; Tracked objects:
  5417 ;;		On entry : 3F/0
  5418 ;;		On exit  : 3F/3E
  5419 ;;		Unchanged: 0/0
  5420 ;; Data sizes:     COMRAM   BANK0   BANK1   BANK2   BANK3   BANK4   BANK5   BANK6   BANK7   BANK8   BANK9  BANK10  BANK1
      +1  BANK12  BANK13  BANK14  BANK15  BANK16  BANK17  BANK18  BANK19  BANK20  BANK21  BANK22  BANK23  BANK24  BANK25  BANK2
      +6  BANK27  BANK28  BANK29  BANK30  BANK31
  5421 ;;      Params:         2       0       0       0       0       0       0       0       0       0       0       0       
      +0       0       0       0       0       0       0       0       0       0       0       0       0       0       0       
      +0       0       0       0       0       0
  5422 ;;      Locals:         0       0       0       0       0       0       0       0       0       0       0       0       
      +0       0       0       0       0       0       0       0       0       0       0       0       0       0       0       
      +0       0       0       0       0       0
  5423 ;;      Temps:          2       0       0       0       0       0       0       0       0       0       0       0       
      +0       0       0       0       0       0       0       0       0       0       0       0       0       0       0       
      +0       0       0       0       0       0
  5424 ;;      Totals:         4       0       0       0       0       0       0       0       0       0       0       0       
      +0       0       0       0       0       0       0       0       0       0       0       0       0       0       0       
      +0       0       0       0       0       0
  5425 ;;Total ram usage:        4 bytes
  5426 ;; Hardware stack levels used: 1
  5427 ;; This function calls:
  5428 ;;		Nothing
  5429 ;; This function is called by:
  5430 ;;		_Adc_Isr
  5431 ;; This function uses a non-reentrant model
  5432 ;;
  5433                           
  5434                           	psect	text42
  5435  0031F6                     __ptext42:
  5436                           	callstack 0
  5437  0031F6                     _ADCC_GetConversionResult:
  5438                           	callstack 19
  5439                           
  5440                           ; BSR set to: 0
  5441                           ;mcc_generated_files/adcc.c: 142:     return ((adc_result_t)((ADRESH << 8) + ADRESL));
  5442                           
  5443                           ; BSR set to: 62
  5444                           ;incstack = 0
  5445  0031F6  013E               	movlb	62	; () banked
  5446  0031F8  51F0               	movf	240,w,b	;volatile
  5447  0031FA  6E04               	movwf	(??_ADCC_GetConversionResult+1)^0,c
  5448  0031FC  6A03               	clrf	??_ADCC_GetConversionResult^0,c
  5449  0031FE  51EF               	movf	239,w,b	;volatile
  5450  003200  2403               	addwf	??_ADCC_GetConversionResult^0,w,c
  5451  003202  6E01               	movwf	?_ADCC_GetConversionResult^0,c
  5452  003204  0E00               	movlw	0
  5453  003206  2004               	addwfc	(??_ADCC_GetConversionResult+1)^0,w,c
  5454  003208  6E02               	movwf	(?_ADCC_GetConversionResult+1)^0,c
  5455                           
  5456                           ; BSR set to: 62
  5457  00320A  0012               	return		;funcret
  5458  00320C                     __end_of_ADCC_GetConversionResult:
  5459                           	callstack 0
  5460                           
  5461 ;; *************** function _TMR6_ISR *****************
  5462 ;; Defined at:
  5463 ;;		line 166 in file "mcc_generated_files/tmr6.c"
  5464 ;; Parameters:    Size  Location     Type
  5465 ;;		None
  5466 ;; Auto vars:     Size  Location     Type
  5467 ;;		None
  5468 ;; Return value:  Size  Location     Type
  5469 ;;                  1    wreg      void 
  5470 ;; Registers used:
  5471 ;;		wreg, status,2, status,0, pcl, pclath, pclatu, tosl, cstack
  5472 ;; Tracked objects:
  5473 ;;		On entry : 0/0
  5474 ;;		On exit  : 3F/0
  5475 ;;		Unchanged: 0/0
  5476 ;; Data sizes:     COMRAM   BANK0   BANK1   BANK2   BANK3   BANK4   BANK5   BANK6   BANK7   BANK8   BANK9  BANK10  BANK1
      +1  BANK12  BANK13  BANK14  BANK15  BANK16  BANK17  BANK18  BANK19  BANK20  BANK21  BANK22  BANK23  BANK24  BANK25  BANK2
      +6  BANK27  BANK28  BANK29  BANK30  BANK31
  5477 ;;      Params:         0       0       0       0       0       0       0       0       0       0       0       0       
      +0       0       0       0       0       0       0       0       0       0       0       0       0       0       0       
      +0       0       0       0       0       0
  5478 ;;      Locals:         0       0       0       0       0       0       0       0       0       0       0       0       
      +0       0       0       0       0       0       0       0       0       0       0       0       0       0       0       
      +0       0       0       0       0       0
  5479 ;;      Temps:          2       0       0       0       0       0       0       0       0       0       0       0       
      +0       0       0       0       0       0       0       0       0       0       0       0       0       0       0       
      +0       0       0       0       0       0
  5480 ;;      Totals:         2       0       0       0       0       0       0       0       0       0       0       0       
      +0       0       0       0       0       0       0       0       0       0       0       0       0       0       0       
      +0       0       0       0       0       0
  5481 ;;Total ram usage:        2 bytes
  5482 ;; Hardware stack levels used: 1
  5483 ;; Hardware stack levels required when called: 2
  5484 ;; This function calls:
  5485 ;;		_TMR6_CallBack
  5486 ;; This function is called by:
  5487 ;;		Interrupt level 2
  5488 ;; This function uses a non-reentrant model
  5489 ;;
  5490                           
  5491                           	psect	text43
  5492  002EAC                     __ptext43:
  5493                           	callstack 0
  5494  002EAC                     _TMR6_ISR:
  5495                           	callstack 19
  5496                           
  5497                           ; BSR set to: 62
  5498                           ;incstack = 0
  5499  002EAC  006F FFE8  F009    	movff	pclath,??_TMR6_ISR
  5500  002EB2  006F FFEC  F00A    	movff	pclatu,??_TMR6_ISR+1
  5501                           
  5502                           ;mcc_generated_files/tmr6.c: 168:     static volatile unsigned int CountCallBack = 0;;mc
      +                          c_generated_files/tmr6.c: 171:     PIR9bits.TMR6IF = 0;
  5503  002EB8  0139               	movlb	57	; () banked
  5504  002EBA  91A9               	bcf	169,0,b	;volatile
  5505                           
  5506                           ; BSR set to: 57
  5507                           ;mcc_generated_files/tmr6.c: 174:     if (++CountCallBack >= 23)
  5508  002EBC  0100               	movlb	0	; () banked
  5509  002EBE  4B88               	infsnz	TMR6_ISR@CountCallBack& (0+255),f,b	;volatile
  5510  002EC0  2B89               	incf	(TMR6_ISR@CountCallBack+1)& (0+255),f,b	;volatile
  5511  002EC2  5189               	movf	(TMR6_ISR@CountCallBack+1)& (0+255),w,b	;volatile
  5512  002EC4  E104               	bnz	i2u142_40
  5513  002EC6  0E17               	movlw	23
  5514  002EC8  5D88               	subwf	TMR6_ISR@CountCallBack& (0+255),w,b	;volatile
  5515  002ECA  A0D8               	btfss	status,0,c
  5516  002ECC  D007               	goto	i2l454
  5517  002ECE                     i2u142_40:
  5518                           
  5519                           ; BSR set to: 0
  5520                           ;mcc_generated_files/tmr6.c: 175:     {;mcc_generated_files/tmr6.c: 177:         TMR6_Ca
      +                          llBack();
  5521  002ECE  ECAF  F018         	call	_TMR6_CallBack	;wreg free
  5522                           
  5523                           ;mcc_generated_files/tmr6.c: 180:         CountCallBack = 0;
  5524  002ED2  0E00               	movlw	0
  5525  002ED4  0100               	movlb	0	; () banked
  5526  002ED6  6F89               	movwf	(TMR6_ISR@CountCallBack+1)& (0+255),b	;volatile
  5527  002ED8  0E00               	movlw	0
  5528  002EDA  6F88               	movwf	TMR6_ISR@CountCallBack& (0+255),b	;volatile
  5529  002EDC                     i2l454:
  5530                           
  5531                           ; BSR set to: 0
  5532  002EDC  0060  F02B  FFFB   	movff	??_TMR6_ISR+1,pclatu
  5533  002EE2  0060  F027  FFFA   	movff	??_TMR6_ISR,pclath
  5534  002EE8  0011               	retfie		f
  5535  002EEA                     __end_of_TMR6_ISR:
  5536                           	callstack 0
  5537                           
  5538 ;; *************** function _TMR6_CallBack *****************
  5539 ;; Defined at:
  5540 ;;		line 184 in file "mcc_generated_files/tmr6.c"
  5541 ;; Parameters:    Size  Location     Type
  5542 ;;		None
  5543 ;; Auto vars:     Size  Location     Type
  5544 ;;		None
  5545 ;; Return value:  Size  Location     Type
  5546 ;;                  1    wreg      void 
  5547 ;; Registers used:
  5548 ;;		wreg, status,2, status,0, pcl, pclath, pclatu, tosl, cstack
  5549 ;; Tracked objects:
  5550 ;;		On entry : 3F/0
  5551 ;;		On exit  : 0/0
  5552 ;;		Unchanged: 0/0
  5553 ;; Data sizes:     COMRAM   BANK0   BANK1   BANK2   BANK3   BANK4   BANK5   BANK6   BANK7   BANK8   BANK9  BANK10  BANK1
      +1  BANK12  BANK13  BANK14  BANK15  BANK16  BANK17  BANK18  BANK19  BANK20  BANK21  BANK22  BANK23  BANK24  BANK25  BANK2
      +6  BANK27  BANK28  BANK29  BANK30  BANK31
  5554 ;;      Params:         0       0       0       0       0       0       0       0       0       0       0       0       
      +0       0       0       0       0       0       0       0       0       0       0       0       0       0       0       
      +0       0       0       0       0       0
  5555 ;;      Locals:         0       0       0       0       0       0       0       0       0       0       0       0       
      +0       0       0       0       0       0       0       0       0       0       0       0       0       0       0       
      +0       0       0       0       0       0
  5556 ;;      Temps:          0       0       0       0       0       0       0       0       0       0       0       0       
      +0       0       0       0       0       0       0       0       0       0       0       0       0       0       0       
      +0       0       0       0       0       0
  5557 ;;      Totals:         0       0       0       0       0       0       0       0       0       0       0       0       
      +0       0       0       0       0       0       0       0       0       0       0       0       0       0       0       
      +0       0       0       0       0       0
  5558 ;;Total ram usage:        0 bytes
  5559 ;; Hardware stack levels used: 1
  5560 ;; Hardware stack levels required when called: 1
  5561 ;; This function calls:
  5562 ;;		Absolute function
  5563 ;;		_Led_Blink
  5564 ;;		_TMR6_DefaultInterruptHandler
  5565 ;; This function is called by:
  5566 ;;		_TMR6_ISR
  5567 ;; This function uses a non-reentrant model
  5568 ;;
  5569                           
  5570                           	psect	text44
  5571  00315E                     __ptext44:
  5572                           	callstack 0
  5573  00315E                     _TMR6_CallBack:
  5574                           	callstack 19
  5575                           
  5576                           ; BSR set to: 0
  5577                           ;mcc_generated_files/tmr6.c: 188:     if(TMR6_InterruptHandler)
  5578                           
  5579                           ; BSR set to: 0
  5580                           ;incstack = 0
  5581  00315E  5178               	movf	_TMR6_InterruptHandler& (0+255),w,b
  5582  003160  1179               	iorwf	(_TMR6_InterruptHandler+1)& (0+255),w,b
  5583  003162  117A               	iorwf	(_TMR6_InterruptHandler+2)& (0+255),w,b
  5584  003164  B4D8               	btfsc	status,2,c
  5585  003166  0012               	return	
  5586                           
  5587                           ; BSR set to: 0
  5588                           ;mcc_generated_files/tmr6.c: 189:     {;mcc_generated_files/tmr6.c: 190:         TMR6_In
      +                          terruptHandler();
  5589  003168  D801               	call	i2u125_48
  5590  00316A  0012               	return	
  5591  00316C                     i2u125_48:
  5592  00316C  0005               	push	
  5593  00316E  6EFA               	movwf	pclath,c
  5594  003170  5178               	movf	_TMR6_InterruptHandler& (0+255),w,b
  5595  003172  6EFD               	movwf	tosl,c
  5596  003174  5179               	movf	(_TMR6_InterruptHandler+1)& (0+255),w,b
  5597  003176  6EFE               	movwf	tosh,c
  5598  003178  517A               	movf	(_TMR6_InterruptHandler+2)& (0+255),w,b
  5599  00317A  6EFF               	movwf	tosu,c
  5600  00317C  50FA               	movf	pclath,w,c
  5601  00317E  0012               	return		;indir
  5602  003180                     __end_of_TMR6_CallBack:
  5603                           	callstack 0
  5604                           
  5605 ;; *************** function _Led_Blink *****************
  5606 ;; Defined at:
  5607 ;;		line 62 in file "main.c"
  5608 ;; Parameters:    Size  Location     Type
  5609 ;;		None
  5610 ;; Auto vars:     Size  Location     Type
  5611 ;;		None
  5612 ;; Return value:  Size  Location     Type
  5613 ;;                  1    wreg      void 
  5614 ;; Registers used:
  5615 ;;		wreg, status,2, status,0
  5616 ;; Tracked objects:
  5617 ;;		On entry : 3F/0
  5618 ;;		On exit  : 3F/0
  5619 ;;		Unchanged: 3F/0
  5620 ;; Data sizes:     COMRAM   BANK0   BANK1   BANK2   BANK3   BANK4   BANK5   BANK6   BANK7   BANK8   BANK9  BANK10  BANK1
      +1  BANK12  BANK13  BANK14  BANK15  BANK16  BANK17  BANK18  BANK19  BANK20  BANK21  BANK22  BANK23  BANK24  BANK25  BANK2
      +6  BANK27  BANK28  BANK29  BANK30  BANK31
  5621 ;;      Params:         0       0       0       0       0       0       0       0       0       0       0       0       
      +0       0       0       0       0       0       0       0       0       0       0       0       0       0       0       
      +0       0       0       0       0       0
  5622 ;;      Locals:         0       0       0       0       0       0       0       0       0       0       0       0       
      +0       0       0       0       0       0       0       0       0       0       0       0       0       0       0       
      +0       0       0       0       0       0
  5623 ;;      Temps:          1       0       0       0       0       0       0       0       0       0       0       0       
      +0       0       0       0       0       0       0       0       0       0       0       0       0       0       0       
      +0       0       0       0       0       0
  5624 ;;      Totals:         1       0       0       0       0       0       0       0       0       0       0       0       
      +0       0       0       0       0       0       0       0       0       0       0       0       0       0       0       
      +0       0       0       0       0       0
  5625 ;;Total ram usage:        1 bytes
  5626 ;; Hardware stack levels used: 1
  5627 ;; This function calls:
  5628 ;;		Nothing
  5629 ;; This function is called by:
  5630 ;;		_main
  5631 ;;		_TMR6_CallBack
  5632 ;; This function uses a non-reentrant model
  5633 ;;
  5634                           
  5635                           	psect	text45
  5636  0031A2                     __ptext45:
  5637                           	callstack 0
  5638  0031A2                     _Led_Blink:
  5639                           	callstack 19
  5640                           
  5641                           ; BSR set to: 0
  5642                           
  5643                           ; BSR set to: 0
  5644                           
  5645                           ;incstack = 0
  5646                           ;main.c: 64:  do { LATEbits.LATE0 = ~LATEbits.LATE0; } while(0);
  5647  0031A2  A0BE               	btfss	190,0,c	;volatile
  5648  0031A4  D002               	goto	i2u122_40
  5649  0031A6  0E01               	movlw	1
  5650  0031A8  D001               	goto	i2u122_46
  5651  0031AA                     i2u122_40:
  5652  0031AA  0E00               	movlw	0
  5653  0031AC                     i2u122_46:
  5654  0031AC  0AFF               	xorlw	255
  5655  0031AE  6E08               	movwf	??_Led_Blink^0,c
  5656  0031B0  50BE               	movf	190,w,c	;volatile
  5657  0031B2  1808               	xorwf	??_Led_Blink^0,w,c
  5658  0031B4  0BFE               	andlw	-2
  5659  0031B6  1808               	xorwf	??_Led_Blink^0,w,c
  5660  0031B8  6EBE               	movwf	190,c	;volatile
  5661                           
  5662                           ; BSR set to: 0
  5663                           ;main.c: 68:  disp_tick = 1;
  5664  0031BA  0E01               	movlw	1
  5665  0031BC  6E44               	movwf	_disp_tick^0,c	;volatile
  5666                           
  5667                           ; BSR set to: 0
  5668  0031BE  0012               	return		;funcret
  5669  0031C0                     __end_of_Led_Blink:
  5670                           	callstack 0
  5671                           
  5672 ;; *************** function _TMR6_DefaultInterruptHandler *****************
  5673 ;; Defined at:
  5674 ;;		line 198 in file "mcc_generated_files/tmr6.c"
  5675 ;; Parameters:    Size  Location     Type
  5676 ;;		None
  5677 ;; Auto vars:     Size  Location     Type
  5678 ;;		None
  5679 ;; Return value:  Size  Location     Type
  5680 ;;                  1    wreg      void 
  5681 ;; Registers used:
  5682 ;;		None
  5683 ;; Tracked objects:
  5684 ;;		On entry : 3F/0
  5685 ;;		On exit  : 3F/0
  5686 ;;		Unchanged: 3F/0
  5687 ;; Data sizes:     COMRAM   BANK0   BANK1   BANK2   BANK3   BANK4   BANK5   BANK6   BANK7   BANK8   BANK9  BANK10  BANK1
      +1  BANK12  BANK13  BANK14  BANK15  BANK16  BANK17  BANK18  BANK19  BANK20  BANK21  BANK22  BANK23  BANK24  BANK25  BANK2
      +6  BANK27  BANK28  BANK29  BANK30  BANK31
  5688 ;;      Params:         0       0       0       0       0       0       0       0       0       0       0       0       
      +0       0       0       0       0       0       0       0       0       0       0       0       0       0       0       
      +0       0       0       0       0       0
  5689 ;;      Locals:         0       0       0       0       0       0       0       0       0       0       0       0       
      +0       0       0       0       0       0       0       0       0       0       0       0       0       0       0       
      +0       0       0       0       0       0
  5690 ;;      Temps:          0       0       0       0       0       0       0       0       0       0       0       0       
      +0       0       0       0       0       0       0       0       0       0       0       0       0       0       0       
      +0       0       0       0       0       0
  5691 ;;      Totals:         0       0       0       0       0       0       0       0       0       0       0       0       
      +0       0       0       0       0       0       0       0       0       0       0       0       0       0       0       
      +0       0       0       0       0       0
  5692 ;;Total ram usage:        0 bytes
  5693 ;; Hardware stack levels used: 1
  5694 ;; This function calls:
  5695 ;;		Nothing
  5696 ;; This function is called by:
  5697 ;;		_TMR6_Initialize
  5698 ;;		_TMR6_CallBack
  5699 ;; This function uses a non-reentrant model
  5700 ;;
  5701                           
  5702                           	psect	text46
  5703  0032A4                     __ptext46:
  5704                           	callstack 0
  5705  0032A4                     _TMR6_DefaultInterruptHandler:
  5706                           	callstack 19
  5707                           
  5708                           ; BSR set to: 0
  5709                           
  5710                           ; BSR set to: 0
  5711                           ;incstack = 0
  5712  0032A4  0012               	return		;funcret
  5713  0032A6                     __end_of_TMR6_DefaultInterruptHandler:
  5714                           	callstack 0
  5715                           
  5716 ;; *************** function _Default_ISR *****************
  5717 ;; Defined at:
  5718 ;;		line 79 in file "mcc_generated_files/interrupt_manager.c"
  5719 ;; Parameters:    Size  Location     Type
  5720 ;;		None
  5721 ;; Auto vars:     Size  Location     Type
  5722 ;;		None
  5723 ;; Return value:  Size  Location     Type
  5724 ;;                  1    wreg      void 
  5725 ;; Registers used:
  5726 ;;		None
  5727 ;; Tracked objects:
  5728 ;;		On entry : 0/0
  5729 ;;		On exit  : 0/0
  5730 ;;		Unchanged: 0/0
  5731 ;; Data sizes:     COMRAM   BANK0   BANK1   BANK2   BANK3   BANK4   BANK5   BANK6   BANK7   BANK8   BANK9  BANK10  BANK1
      +1  BANK12  BANK13  BANK14  BANK15  BANK16  BANK17  BANK18  BANK19  BANK20  BANK21  BANK22  BANK23  BANK24  BANK25  BANK2
      +6  BANK27  BANK28  BANK29  BANK30  BANK31
  5732 ;;      Params:         0       0       0       0       0       0       0       0       0       0       0       0       
      +0       0       0       0       0       0       0       0       0       0       0       0       0       0       0       
      +0       0       0       0       0       0
  5733 ;;      Locals:         0       0       0       0       0       0       0       0       0       0       0       0       
      +0       0       0       0       0       0       0       0       0       0       0       0       0       0       0       
      +0       0       0       0       0       0
  5734 ;;      Temps:          0       0       0       0       0       0       0       0       0       0       0       0       
      +0       0       0       0       0       0       0       0       0       0       0       0       0       0       0       
      +0       0       0       0       0       0
  5735 ;;      Totals:         0       0       0       0       0       0       0       0       0       0       0       0       
      +0       0       0       0       0       0       0       0       0       0       0       0       0       0       0       
      +0       0       0       0       0       0
  5736 ;;Total ram usage:        0 bytes
  5737 ;; Hardware stack levels used: 1
  5738 ;; This function calls:
  5739 ;;		Nothing
  5740 ;; This function is called by:
  5741 ;;		Interrupt level 2
  5742 ;; This function uses a non-reentrant model
  5743 ;;
  5744                           
  5745                           	psect	text47
  5746  0032A8                     __ptext47:
  5747                           	callstack 0
  5748  0032A8                     _Default_ISR:
  5749                           	callstack 21
  5750                           
  5751                           ; BSR set to: 0
  5752                           ;incstack = 0
  5753  0032A8  0011               	retfie		f
  5754  0032AA                     __end_of_Default_ISR:
  5755                           	callstack 0
  5756                           
  5757 ;; *************** function _UART1_tx_vect_isr *****************
  5758 ;; Defined at:
  5759 ;;		line 235 in file "mcc_generated_files/uart1.c"
  5760 ;; Parameters:    Size  Location     Type
  5761 ;;		None
  5762 ;; Auto vars:     Size  Location     Type
  5763 ;;		None
  5764 ;; Return value:  Size  Location     Type
  5765 ;;                  1    wreg      void 
  5766 ;; Registers used:
  5767 ;;		wreg, fsr2l, fsr2h, status,2, status,0, pcl, pclath, pclatu, tosl, cstack
  5768 ;; Tracked objects:
  5769 ;;		On entry : 0/0
  5770 ;;		On exit  : 0/0
  5771 ;;		Unchanged: 0/0
  5772 ;; Data sizes:     COMRAM   BANK0   BANK1   BANK2   BANK3   BANK4   BANK5   BANK6   BANK7   BANK8   BANK9  BANK10  BANK1
      +1  BANK12  BANK13  BANK14  BANK15  BANK16  BANK17  BANK18  BANK19  BANK20  BANK21  BANK22  BANK23  BANK24  BANK25  BANK2
      +6  BANK27  BANK28  BANK29  BANK30  BANK31
  5773 ;;      Params:         0       0       0       0       0       0       0       0       0       0       0       0       
      +0       0       0       0       0       0       0       0       0       0       0       0       0       0       0       
      +0       0       0       0       0       0
  5774 ;;      Locals:         0       0       0       0       0       0       0       0       0       0       0       0       
      +0       0       0       0       0       0       0       0       0       0       0       0       0       0       0       
      +0       0       0       0       0       0
  5775 ;;      Temps:          2       0       0       0       0       0       0       0       0       0       0       0       
      +0       0       0       0       0       0       0       0       0       0       0       0       0       0       0       
      +0       0       0       0       0       0
  5776 ;;      Totals:         2       0       0       0       0       0       0       0       0       0       0       0       
      +0       0       0       0       0       0       0       0       0       0       0       0       0       0       0       
      +0       0       0       0       0       0
  5777 ;;Total ram usage:        2 bytes
  5778 ;; Hardware stack levels used: 1
  5779 ;; Hardware stack levels required when called: 1
  5780 ;; This function calls:
  5781 ;;		Absolute function
  5782 ;;		_UART1_Transmit_ISR
  5783 ;; This function is called by:
  5784 ;;		Interrupt level 2
  5785 ;; This function uses a non-reentrant model
  5786 ;;
  5787                           
  5788                           	psect	text48
  5789  002EEC                     __ptext48:
  5790                           	callstack 0
  5791  002EEC                     _UART1_tx_vect_isr:
  5792                           	callstack 20
  5793                           
  5794                           ;incstack = 0
  5795  002EEC  006F FFE8  F00B    	movff	pclath,??_UART1_tx_vect_isr
  5796  002EF2  006F FFEC  F00C    	movff	pclatu,??_UART1_tx_vect_isr+1
  5797                           
  5798                           ;mcc_generated_files/uart1.c: 237:     if(UART1_TxInterruptHandler)
  5799  002EF8  0100               	movlb	0	; () banked
  5800  002EFA  517E               	movf	_UART1_TxInterruptHandler& (0+255),w,b
  5801  002EFC  117F               	iorwf	(_UART1_TxInterruptHandler+1)& (0+255),w,b
  5802  002EFE  1180               	iorwf	(_UART1_TxInterruptHandler+2)& (0+255),w,b
  5803  002F00  B4D8               	btfsc	status,2,c
  5804  002F02  D00C               	goto	i2u144_49
  5805                           
  5806                           ; BSR set to: 0
  5807                           ;mcc_generated_files/uart1.c: 238:     {;mcc_generated_files/uart1.c: 239:         UART1
      +                          _TxInterruptHandler();
  5808  002F04  D801               	call	i2u144_48
  5809  002F06  D00A               	goto	i2u144_49
  5810  002F08                     i2u144_48:
  5811  002F08  0005               	push	
  5812  002F0A  6EFA               	movwf	pclath,c
  5813  002F0C  517E               	movf	_UART1_TxInterruptHandler& (0+255),w,b
  5814  002F0E  6EFD               	movwf	tosl,c
  5815  002F10  517F               	movf	(_UART1_TxInterruptHandler+1)& (0+255),w,b
  5816  002F12  6EFE               	movwf	tosh,c
  5817  002F14  5180               	movf	(_UART1_TxInterruptHandler+2)& (0+255),w,b
  5818  002F16  6EFF               	movwf	tosu,c
  5819  002F18  50FA               	movf	pclath,w,c
  5820  002F1A  0012               	return		;indir
  5821  002F1C                     i2u144_49:
  5822  002F1C  0060  F033  FFFB   	movff	??_UART1_tx_vect_isr+1,pclatu
  5823  002F22  0060  F02F  FFFA   	movff	??_UART1_tx_vect_isr,pclath
  5824  002F28  0011               	retfie		f
  5825  002F2A                     __end_of_UART1_tx_vect_isr:
  5826                           	callstack 0
  5827                           
  5828 ;; *************** function _UART1_Transmit_ISR *****************
  5829 ;; Defined at:
  5830 ;;		line 253 in file "mcc_generated_files/uart1.c"
  5831 ;; Parameters:    Size  Location     Type
  5832 ;;		None
  5833 ;; Auto vars:     Size  Location     Type
  5834 ;;		None
  5835 ;; Return value:  Size  Location     Type
  5836 ;;                  1    wreg      void 
  5837 ;; Registers used:
  5838 ;;		wreg, fsr2l, fsr2h, status,2, status,0
  5839 ;; Tracked objects:
  5840 ;;		On entry : 3F/0
  5841 ;;		On exit  : 3B/39
  5842 ;;		Unchanged: 0/0
  5843 ;; Data sizes:     COMRAM   BANK0   BANK1   BANK2   BANK3   BANK4   BANK5   BANK6   BANK7   BANK8   BANK9  BANK10  BANK1
      +1  BANK12  BANK13  BANK14  BANK15  BANK16  BANK17  BANK18  BANK19  BANK20  BANK21  BANK22  BANK23  BANK24  BANK25  BANK2
      +6  BANK27  BANK28  BANK29  BANK30  BANK31
  5844 ;;      Params:         0       0       0       0       0       0       0       0       0       0       0       0       
      +0       0       0       0       0       0       0       0       0       0       0       0       0       0       0       
      +0       0       0       0       0       0
  5845 ;;      Locals:         0       0       0       0       0       0       0       0       0       0       0       0       
      +0       0       0       0       0       0       0       0       0       0       0       0       0       0       0       
      +0       0       0       0       0       0
  5846 ;;      Temps:          0       0       0       0       0       0       0       0       0       0       0       0       
      +0       0       0       0       0       0       0       0       0       0       0       0       0       0       0       
      +0       0       0       0       0       0
  5847 ;;      Totals:         0       0       0       0       0       0       0       0       0       0       0       0       
      +0       0       0       0       0       0       0       0       0       0       0       0       0       0       0       
      +0       0       0       0       0       0
  5848 ;;Total ram usage:        0 bytes
  5849 ;; Hardware stack levels used: 1
  5850 ;; This function calls:
  5851 ;;		Nothing
  5852 ;; This function is called by:
  5853 ;;		_UART1_Initialize
  5854 ;;		_UART1_tx_vect_isr
  5855 ;; This function uses a non-reentrant model
  5856 ;;
  5857                           
  5858                           	psect	text49
  5859  003048                     __ptext49:
  5860                           	callstack 0
  5861  003048                     _UART1_Transmit_ISR:
  5862                           	callstack 20
  5863                           
  5864                           ; BSR set to: 0
  5865                           ;mcc_generated_files/uart1.c: 256:     if(sizeof(uart1TxBuffer) > uart1TxBufferRemaining
      +                          )
  5866                           
  5867                           ;incstack = 0
  5868  003048  0E40               	movlw	64
  5869  00304A  6049               	cpfslt	_uart1TxBufferRemaining^0,c
  5870  00304C  D011               	goto	i2l640
  5871                           
  5872                           ; BSR set to: 0
  5873                           ;mcc_generated_files/uart1.c: 257:     {;mcc_generated_files/uart1.c: 258:         U1TXB
      +                           = uart1TxBuffer[uart1TxTail++];
  5874  00304E  0E80               	movlw	low _uart1TxBuffer
  5875  003050  244A               	addwf	_uart1TxTail^0,w,c	;volatile
  5876  003052  6ED9               	movwf	fsr2l,c
  5877  003054  6ADA               	clrf	fsr2h,c
  5878  003056  0E01               	movlw	high _uart1TxBuffer
  5879  003058  22DA               	addwfc	fsr2h,f,c
  5880  00305A  50DF               	movf	indf2,w,c
  5881  00305C  013D               	movlb	61	; () banked
  5882  00305E  6FEA               	movwf	234,b	;volatile
  5883                           
  5884                           ; BSR set to: 61
  5885  003060  2A4A               	incf	_uart1TxTail^0,f,c	;volatile
  5886                           
  5887                           ; BSR set to: 61
  5888                           ;mcc_generated_files/uart1.c: 259:        if(sizeof(uart1TxBuffer) <= uart1TxTail)
  5889  003062  0E3F               	movlw	63
  5890  003064  644A               	cpfsgt	_uart1TxTail^0,c
  5891  003066  D002               	goto	i2l2955
  5892                           
  5893                           ; BSR set to: 61
  5894                           ;mcc_generated_files/uart1.c: 260:         {;mcc_generated_files/uart1.c: 261:          
      +                             uart1TxTail = 0;
  5895  003068  0E00               	movlw	0
  5896  00306A  6E4A               	movwf	_uart1TxTail^0,c	;volatile
  5897  00306C                     i2l2955:
  5898                           
  5899                           ; BSR set to: 61
  5900                           ;mcc_generated_files/uart1.c: 263:         uart1TxBufferRemaining++;
  5901  00306C  2A49               	incf	_uart1TxBufferRemaining^0,f,c	;volatile
  5902                           
  5903                           ;mcc_generated_files/uart1.c: 264:     }
  5904  00306E  0012               	return	
  5905  003070                     i2l640:
  5906                           
  5907                           ; BSR set to: 0
  5908                           ;mcc_generated_files/uart1.c: 266:     {;mcc_generated_files/uart1.c: 267:         PIE3b
      +                          its.U1TXIE = 0;
  5909  003070  0139               	movlb	57	; () banked
  5910  003072  9993               	bcf	147,4,b	;volatile
  5911  003074  0012               	return		;funcret
  5912  003076                     __end_of_UART1_Transmit_ISR:
  5913                           	callstack 0
  5914                           
  5915 ;; *************** function _UART1_rx_vect_isr *****************
  5916 ;; Defined at:
  5917 ;;		line 243 in file "mcc_generated_files/uart1.c"
  5918 ;; Parameters:    Size  Location     Type
  5919 ;;		None
  5920 ;; Auto vars:     Size  Location     Type
  5921 ;;		None
  5922 ;; Return value:  Size  Location     Type
  5923 ;;                  1    wreg      void 
  5924 ;; Registers used:
  5925 ;;		wreg, fsr2l, fsr2h, status,2, status,0, pcl, pclath, pclatu, tosl, cstack
  5926 ;; Tracked objects:
  5927 ;;		On entry : 0/0
  5928 ;;		On exit  : 0/0
  5929 ;;		Unchanged: 0/0
  5930 ;; Data sizes:     COMRAM   BANK0   BANK1   BANK2   BANK3   BANK4   BANK5   BANK6   BANK7   BANK8   BANK9  BANK10  BANK1
      +1  BANK12  BANK13  BANK14  BANK15  BANK16  BANK17  BANK18  BANK19  BANK20  BANK21  BANK22  BANK23  BANK24  BANK25  BANK2
      +6  BANK27  BANK28  BANK29  BANK30  BANK31
  5931 ;;      Params:         0       0       0       0       0       0       0       0       0       0       0       0       
      +0       0       0       0       0       0       0       0       0       0       0       0       0       0       0       
      +0       0       0       0       0       0
  5932 ;;      Locals:         0       0       0       0       0       0       0       0       0       0       0       0       
      +0       0       0       0       0       0       0       0       0       0       0       0       0       0       0       
      +0       0       0       0       0       0
  5933 ;;      Temps:          2       0       0       0       0       0       0       0       0       0       0       0       
      +0       0       0       0       0       0       0       0       0       0       0       0       0       0       0       
      +0       0       0       0       0       0
  5934 ;;      Totals:         2       0       0       0       0       0       0       0       0       0       0       0       
      +0       0       0       0       0       0       0       0       0       0       0       0       0       0       0       
      +0       0       0       0       0       0
  5935 ;;Total ram usage:        2 bytes
  5936 ;; Hardware stack levels used: 1
  5937 ;; Hardware stack levels required when called: 3
  5938 ;; This function calls:
  5939 ;;		Absolute function
  5940 ;;		_UART1_Receive_ISR
  5941 ;; This function is called by:
  5942 ;;		Interrupt level 2
  5943 ;; This function uses a non-reentrant model
  5944 ;;
  5945                           
  5946                           	psect	text50
  5947  002F2C                     __ptext50:
  5948                           	callstack 0
  5949  002F2C                     _UART1_rx_vect_isr:
  5950                           	callstack 18
  5951                           
  5952                           ;incstack = 0
  5953  002F2C  006F FFE8  F00D    	movff	pclath,??_UART1_rx_vect_isr
  5954  002F32  006F FFEC  F00E    	movff	pclatu,??_UART1_rx_vect_isr+1
  5955                           
  5956                           ;mcc_generated_files/uart1.c: 245:     if(UART1_RxInterruptHandler)
  5957  002F38  0100               	movlb	0	; () banked
  5958  002F3A  5181               	movf	_UART1_RxInterruptHandler& (0+255),w,b
  5959  002F3C  1182               	iorwf	(_UART1_RxInterruptHandler+1)& (0+255),w,b
  5960  002F3E  1183               	iorwf	(_UART1_RxInterruptHandler+2)& (0+255),w,b
  5961  002F40  B4D8               	btfsc	status,2,c
  5962  002F42  D00C               	goto	i2u146_49
  5963                           
  5964                           ; BSR set to: 0
  5965                           ;mcc_generated_files/uart1.c: 246:     {;mcc_generated_files/uart1.c: 247:         UART1
      +                          _RxInterruptHandler();
  5966  002F44  D801               	call	i2u146_48
  5967  002F46  D00A               	goto	i2u146_49
  5968  002F48                     i2u146_48:
  5969  002F48  0005               	push	
  5970  002F4A  6EFA               	movwf	pclath,c
  5971  002F4C  5181               	movf	_UART1_RxInterruptHandler& (0+255),w,b
  5972  002F4E  6EFD               	movwf	tosl,c
  5973  002F50  5182               	movf	(_UART1_RxInterruptHandler+1)& (0+255),w,b
  5974  002F52  6EFE               	movwf	tosh,c
  5975  002F54  5183               	movf	(_UART1_RxInterruptHandler+2)& (0+255),w,b
  5976  002F56  6EFF               	movwf	tosu,c
  5977  002F58  50FA               	movf	pclath,w,c
  5978  002F5A  0012               	return		;indir
  5979  002F5C                     i2u146_49:
  5980  002F5C  0060  F03B  FFFB   	movff	??_UART1_rx_vect_isr+1,pclatu
  5981  002F62  0060  F037  FFFA   	movff	??_UART1_rx_vect_isr,pclath
  5982  002F68  0011               	retfie		f
  5983  002F6A                     __end_of_UART1_rx_vect_isr:
  5984                           	callstack 0
  5985                           
  5986 ;; *************** function _UART1_Receive_ISR *****************
  5987 ;; Defined at:
  5988 ;;		line 273 in file "mcc_generated_files/uart1.c"
  5989 ;; Parameters:    Size  Location     Type
  5990 ;;		None
  5991 ;; Auto vars:     Size  Location     Type
  5992 ;;		None
  5993 ;; Return value:  Size  Location     Type
  5994 ;;                  1    wreg      void 
  5995 ;; Registers used:
  5996 ;;		wreg, fsr2l, fsr2h, status,2, status,0, pcl, pclath, pclatu, tosl, cstack
  5997 ;; Tracked objects:
  5998 ;;		On entry : 3F/0
  5999 ;;		On exit  : 0/0
  6000 ;;		Unchanged: 0/0
  6001 ;; Data sizes:     COMRAM   BANK0   BANK1   BANK2   BANK3   BANK4   BANK5   BANK6   BANK7   BANK8   BANK9  BANK10  BANK1
      +1  BANK12  BANK13  BANK14  BANK15  BANK16  BANK17  BANK18  BANK19  BANK20  BANK21  BANK22  BANK23  BANK24  BANK25  BANK2
      +6  BANK27  BANK28  BANK29  BANK30  BANK31
  6002 ;;      Params:         0       0       0       0       0       0       0       0       0       0       0       0       
      +0       0       0       0       0       0       0       0       0       0       0       0       0       0       0       
      +0       0       0       0       0       0
  6003 ;;      Locals:         0       0       0       0       0       0       0       0       0       0       0       0       
      +0       0       0       0       0       0       0       0       0       0       0       0       0       0       0       
      +0       0       0       0       0       0
  6004 ;;      Temps:          0       0       0       0       0       0       0       0       0       0       0       0       
      +0       0       0       0       0       0       0       0       0       0       0       0       0       0       0       
      +0       0       0       0       0       0
  6005 ;;      Totals:         0       0       0       0       0       0       0       0       0       0       0       0       
      +0       0       0       0       0       0       0       0       0       0       0       0       0       0       0       
      +0       0       0       0       0       0
  6006 ;;Total ram usage:        0 bytes
  6007 ;; Hardware stack levels used: 1
  6008 ;; Hardware stack levels required when called: 2
  6009 ;; This function calls:
  6010 ;;		Absolute function
  6011 ;;		_UART1_DefaultErrorHandler
  6012 ;;		_UART1_DefaultFramingErrorHandler
  6013 ;;		_UART1_DefaultOverrunErrorHandler
  6014 ;;		_UART1_RxDataHandler
  6015 ;; This function is called by:
  6016 ;;		_UART1_Initialize
  6017 ;;		_UART1_rx_vect_isr
  6018 ;; This function uses a non-reentrant model
  6019 ;;
  6020                           
  6021                           	psect	text51
  6022  002A5E                     __ptext51:
  6023                           	callstack 0
  6024  002A5E                     _UART1_Receive_ISR:
  6025                           	callstack 18
  6026                           
  6027                           ; BSR set to: 0
  6028                           ;mcc_generated_files/uart1.c: 276:     uart1RxStatusBuffer[uart1RxHead].status = 0;
  6029                           
  6030                           ;incstack = 0
  6031  002A5E  0E00               	movlw	low _uart1RxStatusBuffer
  6032  002A60  2448               	addwf	_uart1RxHead^0,w,c	;volatile
  6033  002A62  6ED9               	movwf	fsr2l,c
  6034  002A64  6ADA               	clrf	fsr2h,c
  6035  002A66  0E01               	movlw	high _uart1RxStatusBuffer
  6036  002A68  22DA               	addwfc	fsr2h,f,c
  6037  002A6A  0E00               	movlw	0
  6038  002A6C  6EDF               	movwf	indf2,c
  6039                           
  6040                           ; BSR set to: 0
  6041                           ;mcc_generated_files/uart1.c: 278:     if(U1ERRIRbits.FERIF){
  6042  002A6E  013D               	movlb	61	; () banked
  6043  002A70  A7F9               	btfss	249,3,b	;volatile
  6044  002A72  D015               	goto	i2u129_49
  6045                           
  6046                           ; BSR set to: 61
  6047                           ;mcc_generated_files/uart1.c: 279:         uart1RxStatusBuffer[uart1RxHead].ferr = 1;
  6048  002A74  0E00               	movlw	low _uart1RxStatusBuffer
  6049  002A76  2448               	addwf	_uart1RxHead^0,w,c	;volatile
  6050  002A78  6ED9               	movwf	fsr2l,c
  6051  002A7A  6ADA               	clrf	fsr2h,c
  6052  002A7C  0E01               	movlw	high _uart1RxStatusBuffer
  6053  002A7E  22DA               	addwfc	fsr2h,f,c
  6054  002A80  0101               	movlb	1	; () banked
  6055  002A82  82DF               	bsf	indf2,1,c
  6056                           
  6057                           ; BSR set to: 1
  6058                           ;mcc_generated_files/uart1.c: 280:         UART1_FramingErrorHandler();
  6059  002A84  D801               	call	i2u129_48
  6060  002A86  D00B               	goto	i2u129_49
  6061  002A88                     i2u129_48:
  6062  002A88  0005               	push	
  6063  002A8A  6EFA               	movwf	pclath,c
  6064  002A8C  0100               	movlb	0	; () banked
  6065  002A8E  5175               	movf	_UART1_FramingErrorHandler& (0+255),w,b
  6066  002A90  6EFD               	movwf	tosl,c
  6067  002A92  5176               	movf	(_UART1_FramingErrorHandler+1)& (0+255),w,b
  6068  002A94  6EFE               	movwf	tosh,c
  6069  002A96  5177               	movf	(_UART1_FramingErrorHandler+2)& (0+255),w,b
  6070  002A98  6EFF               	movwf	tosu,c
  6071  002A9A  50FA               	movf	pclath,w,c
  6072  002A9C  0012               	return		;indir
  6073  002A9E                     i2u129_49:
  6074                           
  6075                           ;mcc_generated_files/uart1.c: 283:     if(U1ERRIRbits.RXFOIF){
  6076  002A9E  013D               	movlb	61	; () banked
  6077  002AA0  A3F9               	btfss	249,1,b	;volatile
  6078  002AA2  D015               	goto	i2u131_49
  6079                           
  6080                           ; BSR set to: 61
  6081                           ;mcc_generated_files/uart1.c: 284:         uart1RxStatusBuffer[uart1RxHead].oerr = 1;
  6082  002AA4  0E00               	movlw	low _uart1RxStatusBuffer
  6083  002AA6  2448               	addwf	_uart1RxHead^0,w,c	;volatile
  6084  002AA8  6ED9               	movwf	fsr2l,c
  6085  002AAA  6ADA               	clrf	fsr2h,c
  6086  002AAC  0E01               	movlw	high _uart1RxStatusBuffer
  6087  002AAE  22DA               	addwfc	fsr2h,f,c
  6088  002AB0  0101               	movlb	1	; () banked
  6089  002AB2  84DF               	bsf	indf2,2,c
  6090                           
  6091                           ; BSR set to: 1
  6092                           ;mcc_generated_files/uart1.c: 285:         UART1_OverrunErrorHandler();
  6093  002AB4  D801               	call	i2u131_48
  6094  002AB6  D00B               	goto	i2u131_49
  6095  002AB8                     i2u131_48:
  6096  002AB8  0005               	push	
  6097  002ABA  6EFA               	movwf	pclath,c
  6098  002ABC  0100               	movlb	0	; () banked
  6099  002ABE  5172               	movf	_UART1_OverrunErrorHandler& (0+255),w,b
  6100  002AC0  6EFD               	movwf	tosl,c
  6101  002AC2  5173               	movf	(_UART1_OverrunErrorHandler+1)& (0+255),w,b
  6102  002AC4  6EFE               	movwf	tosh,c
  6103  002AC6  5174               	movf	(_UART1_OverrunErrorHandler+2)& (0+255),w,b
  6104  002AC8  6EFF               	movwf	tosu,c
  6105  002ACA  50FA               	movf	pclath,w,c
  6106  002ACC  0012               	return		;indir
  6107  002ACE                     i2u131_49:
  6108                           
  6109                           ;mcc_generated_files/uart1.c: 288:     if(uart1RxStatusBuffer[uart1RxHead].status){
  6110  002ACE  0E00               	movlw	low _uart1RxStatusBuffer
  6111  002AD0  2448               	addwf	_uart1RxHead^0,w,c	;volatile
  6112  002AD2  6ED9               	movwf	fsr2l,c
  6113  002AD4  6ADA               	clrf	fsr2h,c
  6114  002AD6  0E01               	movlw	high _uart1RxStatusBuffer
  6115  002AD8  22DA               	addwfc	fsr2h,f,c
  6116  002ADA  50DF               	movf	indf2,w,c
  6117  002ADC  B4D8               	btfsc	status,2,c
  6118  002ADE  D00D               	goto	i2l2975
  6119                           
  6120                           ;mcc_generated_files/uart1.c: 289:         UART1_ErrorHandler();
  6121  002AE0  D801               	call	i2u133_48
  6122  002AE2  0012               	return	
  6123  002AE4                     i2u133_48:
  6124  002AE4  0005               	push	
  6125  002AE6  6EFA               	movwf	pclath,c
  6126  002AE8  0100               	movlb	0	; () banked
  6127  002AEA  516F               	movf	_UART1_ErrorHandler& (0+255),w,b
  6128  002AEC  6EFD               	movwf	tosl,c
  6129  002AEE  5170               	movf	(_UART1_ErrorHandler+1)& (0+255),w,b
  6130  002AF0  6EFE               	movwf	tosh,c
  6131  002AF2  5171               	movf	(_UART1_ErrorHandler+2)& (0+255),w,b
  6132  002AF4  6EFF               	movwf	tosu,c
  6133  002AF6  50FA               	movf	pclath,w,c
  6134  002AF8  0012               	return		;indir
  6135  002AFA                     i2l2975:
  6136                           
  6137                           ;mcc_generated_files/uart1.c: 291:         UART1_RxDataHandler();
  6138  002AFA  ECC0  F018         	call	_UART1_RxDataHandler	;wreg free
  6139  002AFE  0012               	return		;funcret
  6140  002B00                     __end_of_UART1_Receive_ISR:
  6141                           	callstack 0
  6142                           
  6143 ;; *************** function _UART1_DefaultOverrunErrorHandler *****************
  6144 ;; Defined at:
  6145 ;;		line 309 in file "mcc_generated_files/uart1.c"
  6146 ;; Parameters:    Size  Location     Type
  6147 ;;		None
  6148 ;; Auto vars:     Size  Location     Type
  6149 ;;		None
  6150 ;; Return value:  Size  Location     Type
  6151 ;;                  1    wreg      void 
  6152 ;; Registers used:
  6153 ;;		None
  6154 ;; Tracked objects:
  6155 ;;		On entry : 3F/0
  6156 ;;		On exit  : 3F/0
  6157 ;;		Unchanged: 3F/0
  6158 ;; Data sizes:     COMRAM   BANK0   BANK1   BANK2   BANK3   BANK4   BANK5   BANK6   BANK7   BANK8   BANK9  BANK10  BANK1
      +1  BANK12  BANK13  BANK14  BANK15  BANK16  BANK17  BANK18  BANK19  BANK20  BANK21  BANK22  BANK23  BANK24  BANK25  BANK2
      +6  BANK27  BANK28  BANK29  BANK30  BANK31
  6159 ;;      Params:         0       0       0       0       0       0       0       0       0       0       0       0       
      +0       0       0       0       0       0       0       0       0       0       0       0       0       0       0       
      +0       0       0       0       0       0
  6160 ;;      Locals:         0       0       0       0       0       0       0       0       0       0       0       0       
      +0       0       0       0       0       0       0       0       0       0       0       0       0       0       0       
      +0       0       0       0       0       0
  6161 ;;      Temps:          0       0       0       0       0       0       0       0       0       0       0       0       
      +0       0       0       0       0       0       0       0       0       0       0       0       0       0       0       
      +0       0       0       0       0       0
  6162 ;;      Totals:         0       0       0       0       0       0       0       0       0       0       0       0       
      +0       0       0       0       0       0       0       0       0       0       0       0       0       0       0       
      +0       0       0       0       0       0
  6163 ;;Total ram usage:        0 bytes
  6164 ;; Hardware stack levels used: 1
  6165 ;; This function calls:
  6166 ;;		Nothing
  6167 ;; This function is called by:
  6168 ;;		_UART1_Initialize
  6169 ;;		_UART1_Receive_ISR
  6170 ;; This function uses a non-reentrant model
  6171 ;;
  6172                           
  6173                           	psect	text52
  6174  0032AA                     __ptext52:
  6175                           	callstack 0
  6176  0032AA                     _UART1_DefaultOverrunErrorHandler:
  6177                           	callstack 19
  6178                           
  6179                           ; BSR set to: 0
  6180                           
  6181                           ;incstack = 0
  6182  0032AA  0012               	return		;funcret
  6183  0032AC                     __end_of_UART1_DefaultOverrunErrorHandler:
  6184                           	callstack 0
  6185                           
  6186 ;; *************** function _UART1_DefaultFramingErrorHandler *****************
  6187 ;; Defined at:
  6188 ;;		line 307 in file "mcc_generated_files/uart1.c"
  6189 ;; Parameters:    Size  Location     Type
  6190 ;;		None
  6191 ;; Auto vars:     Size  Location     Type
  6192 ;;		None
  6193 ;; Return value:  Size  Location     Type
  6194 ;;                  1    wreg      void 
  6195 ;; Registers used:
  6196 ;;		None
  6197 ;; Tracked objects:
  6198 ;;		On entry : 3F/0
  6199 ;;		On exit  : 3F/0
  6200 ;;		Unchanged: 3F/0
  6201 ;; Data sizes:     COMRAM   BANK0   BANK1   BANK2   BANK3   BANK4   BANK5   BANK6   BANK7   BANK8   BANK9  BANK10  BANK1
      +1  BANK12  BANK13  BANK14  BANK15  BANK16  BANK17  BANK18  BANK19  BANK20  BANK21  BANK22  BANK23  BANK24  BANK25  BANK2
      +6  BANK27  BANK28  BANK29  BANK30  BANK31
  6202 ;;      Params:         0       0       0       0       0       0       0       0       0       0       0       0       
      +0       0       0       0       0       0       0       0       0       0       0       0       0       0       0       
      +0       0       0       0       0       0
  6203 ;;      Locals:         0       0       0       0       0       0       0       0       0       0       0       0       
      +0       0       0       0       0       0       0       0       0       0       0       0       0       0       0       
      +0       0       0       0       0       0
  6204 ;;      Temps:          0       0       0       0       0       0       0       0       0       0       0       0       
      +0       0       0       0       0       0       0       0       0       0       0       0       0       0       0       
      +0       0       0       0       0       0
  6205 ;;      Totals:         0       0       0       0       0       0       0       0       0       0       0       0       
      +0       0       0       0       0       0       0       0       0       0       0       0       0       0       0       
      +0       0       0       0       0       0
  6206 ;;Total ram usage:        0 bytes
  6207 ;; Hardware stack levels used: 1
  6208 ;; This function calls:
  6209 ;;		Nothing
  6210 ;; This function is called by:
  6211 ;;		_UART1_Initialize
  6212 ;;		_UART1_Receive_ISR
  6213 ;; This function uses a non-reentrant model
  6214 ;;
  6215                           
  6216                           	psect	text53
  6217  0032AC                     __ptext53:
  6218                           	callstack 0
  6219  0032AC                     _UART1_DefaultFramingErrorHandler:
  6220                           	callstack 19
  6221                           
  6222                           ; BSR set to: 0
  6223                           
  6224                           ; BSR set to: 0
  6225                           ;incstack = 0
  6226  0032AC  0012               	return		;funcret
  6227  0032AE                     __end_of_UART1_DefaultFramingErrorHandler:
  6228                           	callstack 0
  6229                           
  6230 ;; *************** function _UART1_DefaultErrorHandler *****************
  6231 ;; Defined at:
  6232 ;;		line 311 in file "mcc_generated_files/uart1.c"
  6233 ;; Parameters:    Size  Location     Type
  6234 ;;		None
  6235 ;; Auto vars:     Size  Location     Type
  6236 ;;		None
  6237 ;; Return value:  Size  Location     Type
  6238 ;;                  1    wreg      void 
  6239 ;; Registers used:
  6240 ;;		wreg, fsr2l, fsr2h, status,2, status,0, cstack
  6241 ;; Tracked objects:
  6242 ;;		On entry : 3F/0
  6243 ;;		On exit  : 0/0
  6244 ;;		Unchanged: 0/0
  6245 ;; Data sizes:     COMRAM   BANK0   BANK1   BANK2   BANK3   BANK4   BANK5   BANK6   BANK7   BANK8   BANK9  BANK10  BANK1
      +1  BANK12  BANK13  BANK14  BANK15  BANK16  BANK17  BANK18  BANK19  BANK20  BANK21  BANK22  BANK23  BANK24  BANK25  BANK2
      +6  BANK27  BANK28  BANK29  BANK30  BANK31
  6246 ;;      Params:         0       0       0       0       0       0       0       0       0       0       0       0       
      +0       0       0       0       0       0       0       0       0       0       0       0       0       0       0       
      +0       0       0       0       0       0
  6247 ;;      Locals:         0       0       0       0       0       0       0       0       0       0       0       0       
      +0       0       0       0       0       0       0       0       0       0       0       0       0       0       0       
      +0       0       0       0       0       0
  6248 ;;      Temps:          0       0       0       0       0       0       0       0       0       0       0       0       
      +0       0       0       0       0       0       0       0       0       0       0       0       0       0       0       
      +0       0       0       0       0       0
  6249 ;;      Totals:         0       0       0       0       0       0       0       0       0       0       0       0       
      +0       0       0       0       0       0       0       0       0       0       0       0       0       0       0       
      +0       0       0       0       0       0
  6250 ;;Total ram usage:        0 bytes
  6251 ;; Hardware stack levels used: 1
  6252 ;; Hardware stack levels required when called: 1
  6253 ;; This function calls:
  6254 ;;		_UART1_RxDataHandler
  6255 ;; This function is called by:
  6256 ;;		_UART1_Initialize
  6257 ;;		_UART1_Receive_ISR
  6258 ;; This function uses a non-reentrant model
  6259 ;;
  6260                           
  6261                           	psect	text54
  6262  00329C                     __ptext54:
  6263                           	callstack 0
  6264  00329C                     _UART1_DefaultErrorHandler:
  6265                           	callstack 18
  6266                           
  6267                           ; BSR set to: 0
  6268                           ;mcc_generated_files/uart1.c: 312:     UART1_RxDataHandler();
  6269                           
  6270                           ; BSR set to: 0
  6271                           ;incstack = 0
  6272  00329C  ECC0  F018         	call	_UART1_RxDataHandler	;wreg free
  6273  0032A0  0012               	return		;funcret
  6274  0032A2                     __end_of_UART1_DefaultErrorHandler:
  6275                           	callstack 0
  6276                           
  6277 ;; *************** function _UART1_RxDataHandler *****************
  6278 ;; Defined at:
  6279 ;;		line 297 in file "mcc_generated_files/uart1.c"
  6280 ;; Parameters:    Size  Location     Type
  6281 ;;		None
  6282 ;; Auto vars:     Size  Location     Type
  6283 ;;		None
  6284 ;; Return value:  Size  Location     Type
  6285 ;;                  1    wreg      void 
  6286 ;; Registers used:
  6287 ;;		wreg, fsr2l, fsr2h, status,2, status,0
  6288 ;; Tracked objects:
  6289 ;;		On entry : 0/3D
  6290 ;;		On exit  : 0/0
  6291 ;;		Unchanged: 0/0
  6292 ;; Data sizes:     COMRAM   BANK0   BANK1   BANK2   BANK3   BANK4   BANK5   BANK6   BANK7   BANK8   BANK9  BANK10  BANK1
      +1  BANK12  BANK13  BANK14  BANK15  BANK16  BANK17  BANK18  BANK19  BANK20  BANK21  BANK22  BANK23  BANK24  BANK25  BANK2
      +6  BANK27  BANK28  BANK29  BANK30  BANK31
  6293 ;;      Params:         0       0       0       0       0       0       0       0       0       0       0       0       
      +0       0       0       0       0       0       0       0       0       0       0       0       0       0       0       
      +0       0       0       0       0       0
  6294 ;;      Locals:         0       0       0       0       0       0       0       0       0       0       0       0       
      +0       0       0       0       0       0       0       0       0       0       0       0       0       0       0       
      +0       0       0       0       0       0
  6295 ;;      Temps:          0       0       0       0       0       0       0       0       0       0       0       0       
      +0       0       0       0       0       0       0       0       0       0       0       0       0       0       0       
      +0       0       0       0       0       0
  6296 ;;      Totals:         0       0       0       0       0       0       0       0       0       0       0       0       
      +0       0       0       0       0       0       0       0       0       0       0       0       0       0       0       
      +0       0       0       0       0       0
  6297 ;;Total ram usage:        0 bytes
  6298 ;; Hardware stack levels used: 1
  6299 ;; This function calls:
  6300 ;;		Nothing
  6301 ;; This function is called by:
  6302 ;;		_UART1_Receive_ISR
  6303 ;;		_UART1_DefaultErrorHandler
  6304 ;; This function uses a non-reentrant model
  6305 ;;
  6306                           
  6307                           	psect	text55
  6308  003180                     __ptext55:
  6309                           	callstack 0
  6310  003180                     _UART1_RxDataHandler:
  6311                           	callstack 19
  6312                           
  6313                           ;mcc_generated_files/uart1.c: 299:     uart1RxBuffer[uart1RxHead++] = U1RXB;
  6314                           
  6315                           ;incstack = 0
  6316  003180  0E40               	movlw	low _uart1RxBuffer
  6317  003182  2448               	addwf	_uart1RxHead^0,w,c	;volatile
  6318  003184  6ED9               	movwf	fsr2l,c
  6319  003186  6ADA               	clrf	fsr2h,c
  6320  003188  0E01               	movlw	high _uart1RxBuffer
  6321  00318A  22DA               	addwfc	fsr2h,f,c
  6322  00318C  006F F7A3 FFDF     	movff	15848,indf2	;volatile
  6323  003192  2A48               	incf	_uart1RxHead^0,f,c	;volatile
  6324                           
  6325                           ;mcc_generated_files/uart1.c: 300:     if(sizeof(uart1RxBuffer) <= uart1RxHead)
  6326  003194  0E3F               	movlw	63
  6327  003196  6448               	cpfsgt	_uart1RxHead^0,c
  6328  003198  D002               	goto	i2l2717
  6329                           
  6330                           ;mcc_generated_files/uart1.c: 301:     {;mcc_generated_files/uart1.c: 302:         uart1
      +                          RxHead = 0;
  6331  00319A  0E00               	movlw	0
  6332  00319C  6E48               	movwf	_uart1RxHead^0,c	;volatile
  6333  00319E                     i2l2717:
  6334                           
  6335                           ;mcc_generated_files/uart1.c: 304:     uart1RxCount++;
  6336  00319E  2A46               	incf	_uart1RxCount^0,f,c	;volatile
  6337  0031A0  0012               	return		;funcret
  6338  0031A2                     __end_of_UART1_RxDataHandler:
  6339                           	callstack 0
  6340                           
  6341 ;; *************** function _TMR5_ISR *****************
  6342 ;; Defined at:
  6343 ;;		line 165 in file "mcc_generated_files/tmr5.c"
  6344 ;; Parameters:    Size  Location     Type
  6345 ;;		None
  6346 ;; Auto vars:     Size  Location     Type
  6347 ;;		None
  6348 ;; Return value:  Size  Location     Type
  6349 ;;                  1    wreg      void 
  6350 ;; Registers used:
  6351 ;;		wreg, fsr2l, fsr2h, status,2, status,0, pcl, pclath, pclatu, tosl, prodl, prodh, cstack
  6352 ;; Tracked objects:
  6353 ;;		On entry : 0/0
  6354 ;;		On exit  : 0/0
  6355 ;;		Unchanged: 0/0
  6356 ;; Data sizes:     COMRAM   BANK0   BANK1   BANK2   BANK3   BANK4   BANK5   BANK6   BANK7   BANK8   BANK9  BANK10  BANK1
      +1  BANK12  BANK13  BANK14  BANK15  BANK16  BANK17  BANK18  BANK19  BANK20  BANK21  BANK22  BANK23  BANK24  BANK25  BANK2
      +6  BANK27  BANK28  BANK29  BANK30  BANK31
  6357 ;;      Params:         0       0       0       0       0       0       0       0       0       0       0       0       
      +0       0       0       0       0       0       0       0       0       0       0       0       0       0       0       
      +0       0       0       0       0       0
  6358 ;;      Locals:         0       0       0       0       0       0       0       0       0       0       0       0       
      +0       0       0       0       0       0       0       0       0       0       0       0       0       0       0       
      +0       0       0       0       0       0
  6359 ;;      Temps:          2       0       0       0       0       0       0       0       0       0       0       0       
      +0       0       0       0       0       0       0       0       0       0       0       0       0       0       0       
      +0       0       0       0       0       0
  6360 ;;      Totals:         2       0       0       0       0       0       0       0       0       0       0       0       
      +0       0       0       0       0       0       0       0       0       0       0       0       0       0       0       
      +0       0       0       0       0       0
  6361 ;;Total ram usage:        2 bytes
  6362 ;; Hardware stack levels used: 1
  6363 ;; Hardware stack levels required when called: 1
  6364 ;; This function calls:
  6365 ;;		Absolute function
  6366 ;;		_TMR5_DefaultInterruptHandler
  6367 ;;		_TMR5_WriteTimer
  6368 ;;		_Timers_Isr
  6369 ;; This function is called by:
  6370 ;;		Interrupt level 2
  6371 ;; This function uses a non-reentrant model
  6372 ;;
  6373                           
  6374                           	psect	text56
  6375  002BFC                     __ptext56:
  6376                           	callstack 0
  6377  002BFC                     _TMR5_ISR:
  6378                           	callstack 20
  6379                           
  6380                           ;incstack = 0
  6381  002BFC  006F FFE8  F013    	movff	pclath,??_TMR5_ISR
  6382  002C02  006F FFEC  F014    	movff	pclatu,??_TMR5_ISR+1
  6383                           
  6384                           ;mcc_generated_files/tmr5.c: 169:     PIR8bits.TMR5IF = 0;
  6385  002C08  0139               	movlb	57	; () banked
  6386  002C0A  9DA8               	bcf	168,6,b	;volatile
  6387                           
  6388                           ; BSR set to: 57
  6389                           ;mcc_generated_files/tmr5.c: 170:     TMR5_WriteTimer(timer5ReloadVal);
  6390  002C0C  C086  F00F         	movff	_timer5ReloadVal,TMR5_WriteTimer@timerVal	;volatile
  6391  002C10  C087  F010         	movff	_timer5ReloadVal+1,TMR5_WriteTimer@timerVal+1	;volatile
  6392  002C14  EC7B  F018         	call	_TMR5_WriteTimer	;wreg free
  6393                           
  6394                           ; BSR set to: 57
  6395                           ;mcc_generated_files/tmr5.c: 172:     if(TMR5_InterruptHandler)
  6396  002C18  0100               	movlb	0	; () banked
  6397  002C1A  516C               	movf	_TMR5_InterruptHandler& (0+255),w,b
  6398  002C1C  116D               	iorwf	(_TMR5_InterruptHandler+1)& (0+255),w,b
  6399  002C1E  116E               	iorwf	(_TMR5_InterruptHandler+2)& (0+255),w,b
  6400  002C20  B4D8               	btfsc	status,2,c
  6401  002C22  D00C               	goto	i2u148_49
  6402                           
  6403                           ; BSR set to: 0
  6404                           ;mcc_generated_files/tmr5.c: 173:     {;mcc_generated_files/tmr5.c: 174:         TMR5_In
      +                          terruptHandler();
  6405  002C24  D801               	call	i2u148_48
  6406  002C26  D00A               	goto	i2u148_49
  6407  002C28                     i2u148_48:
  6408  002C28  0005               	push	
  6409  002C2A  6EFA               	movwf	pclath,c
  6410  002C2C  516C               	movf	_TMR5_InterruptHandler& (0+255),w,b
  6411  002C2E  6EFD               	movwf	tosl,c
  6412  002C30  516D               	movf	(_TMR5_InterruptHandler+1)& (0+255),w,b
  6413  002C32  6EFE               	movwf	tosh,c
  6414  002C34  516E               	movf	(_TMR5_InterruptHandler+2)& (0+255),w,b
  6415  002C36  6EFF               	movwf	tosu,c
  6416  002C38  50FA               	movf	pclath,w,c
  6417  002C3A  0012               	return		;indir
  6418  002C3C                     i2u148_49:
  6419  002C3C  0060  F053  FFFB   	movff	??_TMR5_ISR+1,pclatu
  6420  002C42  0060  F04F  FFFA   	movff	??_TMR5_ISR,pclath
  6421  002C48  0011               	retfie		f
  6422  002C4A                     __end_of_TMR5_ISR:
  6423                           	callstack 0
  6424                           
  6425 ;; *************** function _TMR5_DefaultInterruptHandler *****************
  6426 ;; Defined at:
  6427 ;;		line 183 in file "mcc_generated_files/tmr5.c"
  6428 ;; Parameters:    Size  Location     Type
  6429 ;;		None
  6430 ;; Auto vars:     Size  Location     Type
  6431 ;;		None
  6432 ;; Return value:  Size  Location     Type
  6433 ;;                  1    wreg      void 
  6434 ;; Registers used:
  6435 ;;		None
  6436 ;; Tracked objects:
  6437 ;;		On entry : 3F/0
  6438 ;;		On exit  : 3F/0
  6439 ;;		Unchanged: 3F/0
  6440 ;; Data sizes:     COMRAM   BANK0   BANK1   BANK2   BANK3   BANK4   BANK5   BANK6   BANK7   BANK8   BANK9  BANK10  BANK1
      +1  BANK12  BANK13  BANK14  BANK15  BANK16  BANK17  BANK18  BANK19  BANK20  BANK21  BANK22  BANK23  BANK24  BANK25  BANK2
      +6  BANK27  BANK28  BANK29  BANK30  BANK31
  6441 ;;      Params:         0       0       0       0       0       0       0       0       0       0       0       0       
      +0       0       0       0       0       0       0       0       0       0       0       0       0       0       0       
      +0       0       0       0       0       0
  6442 ;;      Locals:         0       0       0       0       0       0       0       0       0       0       0       0       
      +0       0       0       0       0       0       0       0       0       0       0       0       0       0       0       
      +0       0       0       0       0       0
  6443 ;;      Temps:          0       0       0       0       0       0       0       0       0       0       0       0       
      +0       0       0       0       0       0       0       0       0       0       0       0       0       0       0       
      +0       0       0       0       0       0
  6444 ;;      Totals:         0       0       0       0       0       0       0       0       0       0       0       0       
      +0       0       0       0       0       0       0       0       0       0       0       0       0       0       0       
      +0       0       0       0       0       0
  6445 ;;Total ram usage:        0 bytes
  6446 ;; Hardware stack levels used: 1
  6447 ;; This function calls:
  6448 ;;		Nothing
  6449 ;; This function is called by:
  6450 ;;		_TMR5_Initialize
  6451 ;;		_TMR5_ISR
  6452 ;; This function uses a non-reentrant model
  6453 ;;
  6454                           
  6455                           	psect	text57
  6456  0032AE                     __ptext57:
  6457                           	callstack 0
  6458  0032AE                     _TMR5_DefaultInterruptHandler:
  6459                           	callstack 20
  6460                           
  6461                           ; BSR set to: 0
  6462                           
  6463                           ;incstack = 0
  6464  0032AE  0012               	return		;funcret
  6465  0032B0                     __end_of_TMR5_DefaultInterruptHandler:
  6466                           	callstack 0
  6467                           
  6468 ;; *************** function _Timers_Isr *****************
  6469 ;; Defined at:
  6470 ;;		line 48 in file "timers.c"
  6471 ;; Parameters:    Size  Location     Type
  6472 ;;		None
  6473 ;; Auto vars:     Size  Location     Type
  6474 ;;  i               2   16[COMRAM] int 
  6475 ;; Return value:  Size  Location     Type
  6476 ;;                  1    wreg      void 
  6477 ;; Registers used:
  6478 ;;		wreg, fsr2l, fsr2h, status,2, status,0, prodl, prodh
  6479 ;; Tracked objects:
  6480 ;;		On entry : 3F/0
  6481 ;;		On exit  : 3F/0
  6482 ;;		Unchanged: 3F/0
  6483 ;; Data sizes:     COMRAM   BANK0   BANK1   BANK2   BANK3   BANK4   BANK5   BANK6   BANK7   BANK8   BANK9  BANK10  BANK1
      +1  BANK12  BANK13  BANK14  BANK15  BANK16  BANK17  BANK18  BANK19  BANK20  BANK21  BANK22  BANK23  BANK24  BANK25  BANK2
      +6  BANK27  BANK28  BANK29  BANK30  BANK31
  6484 ;;      Params:         0       0       0       0       0       0       0       0       0       0       0       0       
      +0       0       0       0       0       0       0       0       0       0       0       0       0       0       0       
      +0       0       0       0       0       0
  6485 ;;      Locals:         2       0       0       0       0       0       0       0       0       0       0       0       
      +0       0       0       0       0       0       0       0       0       0       0       0       0       0       0       
      +0       0       0       0       0       0
  6486 ;;      Temps:          2       0       0       0       0       0       0       0       0       0       0       0       
      +0       0       0       0       0       0       0       0       0       0       0       0       0       0       0       
      +0       0       0       0       0       0
  6487 ;;      Totals:         4       0       0       0       0       0       0       0       0       0       0       0       
      +0       0       0       0       0       0       0       0       0       0       0       0       0       0       0       
      +0       0       0       0       0       0
  6488 ;;Total ram usage:        4 bytes
  6489 ;; Hardware stack levels used: 1
  6490 ;; This function calls:
  6491 ;;		Nothing
  6492 ;; This function is called by:
  6493 ;;		_main
  6494 ;;		_TMR5_ISR
  6495 ;; This function uses a non-reentrant model
  6496 ;;
  6497                           
  6498                           	psect	text58
  6499  002CE0                     __ptext58:
  6500                           	callstack 0
  6501  002CE0                     _Timers_Isr:
  6502                           	callstack 20
  6503                           
  6504                           ; BSR set to: 0
  6505                           ;timers.c: 51:  for (int i = 0; i < TMR_COUNT; i++) {
  6506                           
  6507                           ; BSR set to: 0
  6508                           ;incstack = 0
  6509  002CE0  0E00               	movlw	0
  6510  002CE2  6E12               	movwf	(Timers_Isr@i+1)^0,c
  6511  002CE4  0E00               	movlw	0
  6512  002CE6  6E11               	movwf	Timers_Isr@i^0,c
  6513  002CE8                     i2l3027:
  6514                           
  6515                           ; BSR set to: 0
  6516                           ;timers.c: 52:   if (tickCount[i] != 0) {
  6517  002CE8  5011               	movf	Timers_Isr@i^0,w,c
  6518  002CEA  0D02               	mullw	2
  6519  002CEC  50F3               	movf	243,w,c
  6520  002CEE  0F60               	addlw	low _tickCount
  6521  002CF0  6ED9               	movwf	fsr2l,c
  6522  002CF2  6ADA               	clrf	fsr2h,c
  6523  002CF4  50DE               	movf	postinc2,w,c
  6524  002CF6  10DE               	iorwf	postinc2,w,c
  6525  002CF8  B4D8               	btfsc	status,2,c
  6526  002CFA  D009               	goto	i2l3031
  6527                           
  6528                           ; BSR set to: 0
  6529                           ;timers.c: 53:    tickCount[i]--;
  6530  002CFC  5011               	movf	Timers_Isr@i^0,w,c
  6531  002CFE  0D02               	mullw	2
  6532  002D00  50F3               	movf	243,w,c
  6533  002D02  0F60               	addlw	low _tickCount
  6534  002D04  6ED9               	movwf	fsr2l,c
  6535  002D06  6ADA               	clrf	fsr2h,c
  6536  002D08  06DE               	decf	postinc2,f,c
  6537  002D0A  0E00               	movlw	0
  6538  002D0C  5ADD               	subwfb	postdec2,f,c
  6539  002D0E                     i2l3031:
  6540                           
  6541                           ; BSR set to: 0
  6542                           ;timers.c: 55:  }
  6543  002D0E  4A11               	infsnz	Timers_Isr@i^0,f,c
  6544  002D10  2A12               	incf	(Timers_Isr@i+1)^0,f,c
  6545                           
  6546                           ; BSR set to: 0
  6547  002D12  BE12               	btfsc	(Timers_Isr@i+1)^0,7,c
  6548  002D14  D7E9               	goto	i2l3027
  6549  002D16  5012               	movf	(Timers_Isr@i+1)^0,w,c
  6550  002D18  E105               	bnz	i2u139_40
  6551  002D1A  0E06               	movlw	6
  6552  002D1C  5C11               	subwf	Timers_Isr@i^0,w,c
  6553  002D1E  B0D8               	btfsc	status,0,c
  6554  002D20  0012               	return	
  6555  002D22  D7E2               	goto	i2l3027
  6556  002D24                     i2u139_40:
  6557                           
  6558                           ; BSR set to: 0
  6559  002D24  0012               	return		;funcret
  6560  002D26                     __end_of_Timers_Isr:
  6561                           	callstack 0
  6562                           
  6563 ;; *************** function _TMR5_WriteTimer *****************
  6564 ;; Defined at:
  6565 ;;		line 128 in file "mcc_generated_files/tmr5.c"
  6566 ;; Parameters:    Size  Location     Type
  6567 ;;  timerVal        2   14[COMRAM] unsigned short 
  6568 ;; Auto vars:     Size  Location     Type
  6569 ;;		None
  6570 ;; Return value:  Size  Location     Type
  6571 ;;                  1    wreg      void 
  6572 ;; Registers used:
  6573 ;;		None
  6574 ;; Tracked objects:
  6575 ;;		On entry : 3F/39
  6576 ;;		On exit  : 3F/39
  6577 ;;		Unchanged: 3E/0
  6578 ;; Data sizes:     COMRAM   BANK0   BANK1   BANK2   BANK3   BANK4   BANK5   BANK6   BANK7   BANK8   BANK9  BANK10  BANK1
      +1  BANK12  BANK13  BANK14  BANK15  BANK16  BANK17  BANK18  BANK19  BANK20  BANK21  BANK22  BANK23  BANK24  BANK25  BANK2
      +6  BANK27  BANK28  BANK29  BANK30  BANK31
  6579 ;;      Params:         2       0       0       0       0       0       0       0       0       0       0       0       
      +0       0       0       0       0       0       0       0       0       0       0       0       0       0       0       
      +0       0       0       0       0       0
  6580 ;;      Locals:         0       0       0       0       0       0       0       0       0       0       0       0       
      +0       0       0       0       0       0       0       0       0       0       0       0       0       0       0       
      +0       0       0       0       0       0
  6581 ;;      Temps:          0       0       0       0       0       0       0       0       0       0       0       0       
      +0       0       0       0       0       0       0       0       0       0       0       0       0       0       0       
      +0       0       0       0       0       0
  6582 ;;      Totals:         2       0       0       0       0       0       0       0       0       0       0       0       
      +0       0       0       0       0       0       0       0       0       0       0       0       0       0       0       
      +0       0       0       0       0       0
  6583 ;;Total ram usage:        2 bytes
  6584 ;; Hardware stack levels used: 1
  6585 ;; This function calls:
  6586 ;;		Nothing
  6587 ;; This function is called by:
  6588 ;;		_TMR5_ISR
  6589 ;; This function uses a non-reentrant model
  6590 ;;
  6591                           
  6592                           	psect	text59
  6593  0030F6                     __ptext59:
  6594                           	callstack 0
  6595  0030F6                     _TMR5_WriteTimer:
  6596                           	callstack 20
  6597                           
  6598                           ; BSR set to: 57
  6599                           ;mcc_generated_files/tmr5.c: 128: void TMR5_WriteTimer(uint16_t timerVal);mcc_generated_
      +                          files/tmr5.c: 129: {;mcc_generated_files/tmr5.c: 130:     if (T5CONbits.NOT_SYNC == 1)
  6600                           
  6601                           ; BSR set to: 0
  6602                           ;incstack = 0
  6603  0030F6  A49A               	btfss	154,2,c	;volatile
  6604  0030F8  D009               	goto	i2l721
  6605                           
  6606                           ; BSR set to: 57
  6607                           ;mcc_generated_files/tmr5.c: 131:     {;mcc_generated_files/tmr5.c: 133:         T5CONbi
      +                          ts.TMR5ON = 0;
  6608  0030FA  909A               	bcf	154,0,c	;volatile
  6609                           
  6610                           ;mcc_generated_files/tmr5.c: 136:         TMR5H = (uint8_t)(timerVal >> 8);
  6611  0030FC  0060  F043  FF99   	movff	TMR5_WriteTimer@timerVal+1,16281	;volatile
  6612                           
  6613                           ;mcc_generated_files/tmr5.c: 137:         TMR5L = (uint8_t)timerVal;
  6614  003102  0060  F03F  FF98   	movff	TMR5_WriteTimer@timerVal,16280	;volatile
  6615                           
  6616                           ;mcc_generated_files/tmr5.c: 140:         T5CONbits.TMR5ON =1;
  6617  003108  809A               	bsf	154,0,c	;volatile
  6618                           
  6619                           ;mcc_generated_files/tmr5.c: 141:     }
  6620  00310A  0012               	return	
  6621  00310C                     i2l721:
  6622                           
  6623                           ; BSR set to: 57
  6624                           ;mcc_generated_files/tmr5.c: 143:     {;mcc_generated_files/tmr5.c: 145:         TMR5H =
      +                           (uint8_t)(timerVal >> 8);
  6625  00310C  0060  F043  FF99   	movff	TMR5_WriteTimer@timerVal+1,16281	;volatile
  6626                           
  6627                           ;mcc_generated_files/tmr5.c: 146:         TMR5L = (uint8_t)timerVal;
  6628  003112  0060  F03F  FF98   	movff	TMR5_WriteTimer@timerVal,16280	;volatile
  6629                           
  6630                           ; BSR set to: 57
  6631  003118  0012               	return		;funcret
  6632  00311A                     __end_of_TMR5_WriteTimer:
  6633                           	callstack 0
  6634                           
  6635                           ;
  6636                           ; Interrupt Vector Table @ 0x8
  6637                           ;
  6638                           
  6639                           	psect	ivt0x8
  6640  000008                     __pivt0x8:
  6641                           	callstack 0
  6642  000008                     ivt0x8_base:
  6643                           	callstack 0
  6644                           
  6645                           ; Vector 0 : SWINT
  6646  000008  0CAA               	dw	_Default_ISR shr (0+2)
  6647                           
  6648                           ; Vector 1 : HLVD
  6649  00000A  0CAA               	dw	_Default_ISR shr (0+2)
  6650                           
  6651                           ; Vector 2 : OSF
  6652  00000C  0CAA               	dw	_Default_ISR shr (0+2)
  6653                           
  6654                           ; Vector 3 : CSW
  6655  00000E  0CAA               	dw	_Default_ISR shr (0+2)
  6656                           
  6657                           ; Vector 4 : NVM
  6658  000010  0CAA               	dw	_Default_ISR shr (0+2)
  6659                           
  6660                           ; Vector 5 : SCAN
  6661  000012  0CAA               	dw	_Default_ISR shr (0+2)
  6662                           
  6663                           ; Vector 6 : CRC
  6664  000014  0CAA               	dw	_Default_ISR shr (0+2)
  6665                           
  6666                           ; Vector 7 : IOC
  6667  000016  0CAA               	dw	_Default_ISR shr (0+2)
  6668                           
  6669                           ; Vector 8 : INT0
  6670  000018  0CAA               	dw	_Default_ISR shr (0+2)
  6671                           
  6672                           ; Vector 9 : ZCD
  6673  00001A  0CAA               	dw	_Default_ISR shr (0+2)
  6674                           
  6675                           ; Vector 10 : AD
  6676  00001C  0B6B               	dw	_ADCC_ISR shr (0+2)
  6677                           
  6678                           ; Vector 11 : ADT
  6679  00001E  0CAA               	dw	_Default_ISR shr (0+2)
  6680                           
  6681                           ; Vector 12 : CMP1
  6682  000020  0CAA               	dw	_Default_ISR shr (0+2)
  6683                           
  6684                           ; Vector 13 : SMT1
  6685  000022  0CAA               	dw	_Default_ISR shr (0+2)
  6686                           
  6687                           ; Vector 14 : SMT1PRA
  6688  000024  0CAA               	dw	_Default_ISR shr (0+2)
  6689                           
  6690                           ; Vector 15 : SMT1PRW
  6691  000026  0CAA               	dw	_Default_ISR shr (0+2)
  6692                           
  6693                           ; Vector 16 : DMA1SCNT
  6694  000028  0CAA               	dw	_Default_ISR shr (0+2)
  6695                           
  6696                           ; Vector 17 : DMA1DCNT
  6697  00002A  0CAA               	dw	_Default_ISR shr (0+2)
  6698                           
  6699                           ; Vector 18 : DMA1OR
  6700  00002C  0CAA               	dw	_Default_ISR shr (0+2)
  6701                           
  6702                           ; Vector 19 : DMA1A
  6703  00002E  0CAA               	dw	_Default_ISR shr (0+2)
  6704                           
  6705                           ; Vector 20 : SPI1RX
  6706  000030  0CAA               	dw	_Default_ISR shr (0+2)
  6707                           
  6708                           ; Vector 21 : SPI1TX
  6709  000032  0CAA               	dw	_Default_ISR shr (0+2)
  6710                           
  6711                           ; Vector 22 : SPI1
  6712  000034  0CAA               	dw	_Default_ISR shr (0+2)
  6713                           
  6714                           ; Vector 23 : I2C1RX
  6715  000036  0CAA               	dw	_Default_ISR shr (0+2)
  6716                           
  6717                           ; Vector 24 : I2C1TX
  6718  000038  0CAA               	dw	_Default_ISR shr (0+2)
  6719                           
  6720                           ; Vector 25 : I2C1
  6721  00003A  0CAA               	dw	_Default_ISR shr (0+2)
  6722                           
  6723                           ; Vector 26 : I2C1E
  6724  00003C  0CAA               	dw	_Default_ISR shr (0+2)
  6725                           
  6726                           ; Vector 27 : U1RX
  6727  00003E  0BCB               	dw	_UART1_rx_vect_isr shr (0+2)
  6728                           
  6729                           ; Vector 28 : U1TX
  6730  000040  0BBB               	dw	_UART1_tx_vect_isr shr (0+2)
  6731                           
  6732                           ; Vector 29 : U1E
  6733  000042  0CAA               	dw	_Default_ISR shr (0+2)
  6734                           
  6735                           ; Vector 30 : U1
  6736  000044  0CAA               	dw	_Default_ISR shr (0+2)
  6737                           
  6738                           ; Vector 31 : TMR0
  6739  000046  0CAA               	dw	_Default_ISR shr (0+2)
  6740                           
  6741                           ; Vector 32 : TMR1
  6742  000048  0CAA               	dw	_Default_ISR shr (0+2)
  6743                           
  6744                           ; Vector 33 : TMR1G
  6745  00004A  0CAA               	dw	_Default_ISR shr (0+2)
  6746                           
  6747                           ; Vector 34 : TMR2
  6748  00004C  0CAA               	dw	_Default_ISR shr (0+2)
  6749                           
  6750                           ; Vector 35 : CCP1
  6751  00004E  0CAA               	dw	_Default_ISR shr (0+2)
  6752                           
  6753                           ; Vector 36 : Undefined
  6754  000050  002B               	dw	ivt0x8_undefint shr (0+2)
  6755                           
  6756                           ; Vector 37 : NCO1
  6757  000052  0CAA               	dw	_Default_ISR shr (0+2)
  6758                           
  6759                           ; Vector 38 : CWG1
  6760  000054  0CAA               	dw	_Default_ISR shr (0+2)
  6761                           
  6762                           ; Vector 39 : CLC1
  6763  000056  0CAA               	dw	_Default_ISR shr (0+2)
  6764                           
  6765                           ; Vector 40 : INT1
  6766  000058  0CAA               	dw	_Default_ISR shr (0+2)
  6767                           
  6768                           ; Vector 41 : CMP2
  6769  00005A  0CAA               	dw	_Default_ISR shr (0+2)
  6770                           
  6771                           ; Vector 42 : DMA2SCNT
  6772  00005C  0CAA               	dw	_Default_ISR shr (0+2)
  6773                           
  6774                           ; Vector 43 : DMA2DCNT
  6775  00005E  0CAA               	dw	_Default_ISR shr (0+2)
  6776                           
  6777                           ; Vector 44 : DMA2OR
  6778  000060  0CAA               	dw	_Default_ISR shr (0+2)
  6779                           
  6780                           ; Vector 45 : DMA2A
  6781  000062  0CAA               	dw	_Default_ISR shr (0+2)
  6782                           
  6783                           ; Vector 46 : I2C2RX
  6784  000064  0CAA               	dw	_Default_ISR shr (0+2)
  6785                           
  6786                           ; Vector 47 : I2C2TX
  6787  000066  0CAA               	dw	_Default_ISR shr (0+2)
  6788                           
  6789                           ; Vector 48 : I2C2
  6790  000068  0CAA               	dw	_Default_ISR shr (0+2)
  6791                           
  6792                           ; Vector 49 : I2C2E
  6793  00006A  0CAA               	dw	_Default_ISR shr (0+2)
  6794                           
  6795                           ; Vector 50 : U2RX
  6796  00006C  0CAA               	dw	_Default_ISR shr (0+2)
  6797                           
  6798                           ; Vector 51 : U2TX
  6799  00006E  0CAA               	dw	_Default_ISR shr (0+2)
  6800                           
  6801                           ; Vector 52 : U2E
  6802  000070  0CAA               	dw	_Default_ISR shr (0+2)
  6803                           
  6804                           ; Vector 53 : U2
  6805  000072  0CAA               	dw	_Default_ISR shr (0+2)
  6806                           
  6807                           ; Vector 54 : TMR3
  6808  000074  0CAA               	dw	_Default_ISR shr (0+2)
  6809                           
  6810                           ; Vector 55 : TMR3G
  6811  000076  0CAA               	dw	_Default_ISR shr (0+2)
  6812                           
  6813                           ; Vector 56 : TMR4
  6814  000078  0CAA               	dw	_Default_ISR shr (0+2)
  6815                           
  6816                           ; Vector 57 : CCP2
  6817  00007A  0CAA               	dw	_Default_ISR shr (0+2)
  6818                           
  6819                           ; Vector 58 : Undefined
  6820  00007C  002B               	dw	ivt0x8_undefint shr (0+2)
  6821                           
  6822                           ; Vector 59 : CWG2
  6823  00007E  0CAA               	dw	_Default_ISR shr (0+2)
  6824                           
  6825                           ; Vector 60 : CLC2
  6826  000080  0CAA               	dw	_Default_ISR shr (0+2)
  6827                           
  6828                           ; Vector 61 : INT2
  6829  000082  0CAA               	dw	_Default_ISR shr (0+2)
  6830                           
  6831                           ; Vector 62 : Undefined
  6832  000084  002B               	dw	ivt0x8_undefint shr (0+2)
  6833                           
  6834                           ; Vector 63 : Undefined
  6835  000086  002B               	dw	ivt0x8_undefint shr (0+2)
  6836                           
  6837                           ; Vector 64 : Undefined
  6838  000088  002B               	dw	ivt0x8_undefint shr (0+2)
  6839                           
  6840                           ; Vector 65 : Undefined
  6841  00008A  002B               	dw	ivt0x8_undefint shr (0+2)
  6842                           
  6843                           ; Vector 66 : Undefined
  6844  00008C  002B               	dw	ivt0x8_undefint shr (0+2)
  6845                           
  6846                           ; Vector 67 : Undefined
  6847  00008E  002B               	dw	ivt0x8_undefint shr (0+2)
  6848                           
  6849                           ; Vector 68 : Undefined
  6850  000090  002B               	dw	ivt0x8_undefint shr (0+2)
  6851                           
  6852                           ; Vector 69 : Undefined
  6853  000092  002B               	dw	ivt0x8_undefint shr (0+2)
  6854                           
  6855                           ; Vector 70 : TMR5
  6856  000094  0AFF               	dw	_TMR5_ISR shr (0+2)
  6857                           
  6858                           ; Vector 71 : TMR5G
  6859  000096  0CAA               	dw	_Default_ISR shr (0+2)
  6860                           
  6861                           ; Vector 72 : TMR6
  6862  000098  0BAB               	dw	_TMR6_ISR shr (0+2)
  6863                           
  6864                           ; Vector 73 : CCP3
  6865  00009A  0CAA               	dw	_Default_ISR shr (0+2)
  6866                           
  6867                           ; Vector 74 : CWG3
  6868  00009C  0CAA               	dw	_Default_ISR shr (0+2)
  6869                           
  6870                           ; Vector 75 : CLC3
  6871  00009E  0CAA               	dw	_Default_ISR shr (0+2)
  6872                           
  6873                           ; Vector 76 : Undefined
  6874  0000A0  002B               	dw	ivt0x8_undefint shr (0+2)
  6875                           
  6876                           ; Vector 77 : Undefined
  6877  0000A2  002B               	dw	ivt0x8_undefint shr (0+2)
  6878                           
  6879                           ; Vector 78 : Undefined
  6880  0000A4  002B               	dw	ivt0x8_undefint shr (0+2)
  6881                           
  6882                           ; Vector 79 : Undefined
  6883  0000A6  002B               	dw	ivt0x8_undefint shr (0+2)
  6884                           
  6885                           ; Vector 80 : CCP4
  6886  0000A8  0CAA               	dw	_Default_ISR shr (0+2)
  6887                           
  6888                           ; Vector 81 : CLC4
  6889  0000AA  0CAA               	dw	_Default_ISR shr (0+2)
  6890  0000AC                     ivt0x8_undefint:
  6891                           	callstack 0
  6892  0000AC  00FF               	reset	
  6893                           
  6894                           	psect	text60
  6895  000000                     __ptext60:
  6896                           	callstack 0
  6897                           
  6898                           	psect	rparam
  6899  0000                     
  6900                           	psect	idloc
  6901                           
  6902                           ;Config register IDLOC0 @ 0x200000
  6903                           ;	unspecified, using default values
  6904  200000                     	org	2097152
  6905  200000  0FFF               	dw	4095
  6906                           
  6907                           ;Config register IDLOC1 @ 0x200002
  6908                           ;	unspecified, using default values
  6909  200002                     	org	2097154
  6910  200002  0FFF               	dw	4095
  6911                           
  6912                           ;Config register IDLOC2 @ 0x200004
  6913                           ;	unspecified, using default values
  6914  200004                     	org	2097156
  6915  200004  0FFF               	dw	4095
  6916                           
  6917                           ;Config register IDLOC3 @ 0x200006
  6918                           ;	unspecified, using default values
  6919  200006                     	org	2097158
  6920  200006  0FFF               	dw	4095
  6921                           
  6922                           ;Config register IDLOC4 @ 0x200008
  6923                           ;	unspecified, using default values
  6924  200008                     	org	2097160
  6925  200008  0FFF               	dw	4095
  6926                           
  6927                           ;Config register IDLOC5 @ 0x20000A
  6928                           ;	unspecified, using default values
  6929  20000A                     	org	2097162
  6930  20000A  0FFF               	dw	4095
  6931                           
  6932                           ;Config register IDLOC6 @ 0x20000C
  6933                           ;	unspecified, using default values
  6934  20000C                     	org	2097164
  6935  20000C  0FFF               	dw	4095
  6936                           
  6937                           ;Config register IDLOC7 @ 0x20000E
  6938                           ;	unspecified, using default values
  6939  20000E                     	org	2097166
  6940  20000E  0FFF               	dw	4095
  6941                           
  6942                           	psect	config
  6943                           
  6944                           ;Config register CONFIG1L @ 0x300000
  6945                           ;	External Oscillator Selection
  6946                           ;	FEXTOSC = ECH, EC (external clock) above 8 MHz; PFM set to high power
  6947                           ;	Reset Oscillator Selection
  6948                           ;	RSTOSC = EXTOSC_4PLL, EXTOSC with 4x PLL, with EXTOSC operating per FEXTOSC bits
  6949  300000                     	org	3145728
  6950  300000  AF                 	db	175
  6951                           
  6952                           ;Config register CONFIG1H @ 0x300001
  6953                           ;	Clock out Enable bit
  6954                           ;	CLKOUTEN = OFF, CLKOUT function is disabled
  6955                           ;	PRLOCKED One-Way Set Enable bit
  6956                           ;	PR1WAY = ON, PRLOCK bit can be cleared and set only once
  6957                           ;	Clock Switch Enable bit
  6958                           ;	CSWEN = ON, Writing to NOSC and NDIV is allowed
  6959                           ;	Fail-Safe Clock Monitor Enable bit
  6960                           ;	FCMEN = ON, Fail-Safe Clock Monitor enabled
  6961  300001                     	org	3145729
  6962  300001  FF                 	db	255
  6963                           
  6964                           ;Config register CONFIG2L @ 0x300002
  6965                           ;	MCLR Enable bit
  6966                           ;	MCLRE = EXTMCLR, If LVP = 0, MCLR pin is MCLR; If LVP = 1, RE3 pin function is MCLR
  6967                           ;	Power-up timer selection bits
  6968                           ;	PWRTS = PWRT_OFF, PWRT is disabled
  6969                           ;	Multi-vector enable bit
  6970                           ;	MVECEN = ON, Multi-vector enabled, Vector table used for interrupts
  6971                           ;	IVTLOCK bit One-way set enable bit
  6972                           ;	IVT1WAY = ON, IVTLOCK bit can be cleared and set only once
  6973                           ;	Low Power BOR Enable bit
  6974                           ;	LPBOREN = OFF, ULPBOR disabled
  6975                           ;	Brown-out Reset Enable bits
  6976                           ;	BOREN = SBORDIS, Brown-out Reset enabled , SBOREN bit is ignored
  6977  300002                     	org	3145730
  6978  300002  FF                 	db	255
  6979                           
  6980                           ;Config register CONFIG2H @ 0x300003
  6981                           ;	Brown-out Reset Voltage Selection bits
  6982                           ;	BORV = VBOR_2P45, Brown-out Reset Voltage (VBOR) set to 2.45V
  6983                           ;	ZCD Disable bit
  6984                           ;	ZCD = OFF, ZCD disabled. ZCD can be enabled by setting the ZCDSEN bit of ZCDCON
  6985                           ;	PPSLOCK bit One-Way Set Enable bit
  6986                           ;	PPS1WAY = ON, PPSLOCK bit can be cleared and set only once; PPS registers remain locke
      +                          d after one clear/set cycle
  6987                           ;	Stack Full/Underflow Reset Enable bit
  6988                           ;	STVREN = ON, Stack full/underflow will cause Reset
  6989                           ;	Debugger Enable bit
  6990                           ;	DEBUG = OFF, Background debugger disabled
  6991                           ;	Extended Instruction Set Enable bit
  6992                           ;	XINST = OFF, Extended Instruction Set and Indexed Addressing Mode disabled
  6993  300003                     	org	3145731
  6994  300003  FF                 	db	255
  6995                           
  6996                           ;Config register CONFIG3L @ 0x300004
  6997                           ;	WDT Period selection bits
  6998                           ;	WDTCPS = WDTCPS_31, Divider ratio 1:65536; software control of WDTPS
  6999                           ;	WDT operating mode
  7000                           ;	WDTE = OFF, WDT Disabled; SWDTEN is ignored
  7001  300004                     	org	3145732
  7002  300004  9F                 	db	159
  7003                           
  7004                           ;Config register CONFIG3H @ 0x300005
  7005                           ;	WDT Window Select bits
  7006                           ;	WDTCWS = WDTCWS_7, window always open (100%); software control; keyed access not requi
      +                          red
  7007                           ;	WDT input clock selector
  7008                           ;	WDTCCS = SC, Software Control
  7009  300005                     	org	3145733
  7010  300005  FF                 	db	255
  7011                           
  7012                           ;Config register CONFIG4L @ 0x300006
  7013                           ;	Boot Block Size selection bits
  7014                           ;	BBSIZE = BBSIZE_512, Boot Block size is 512 words
  7015                           ;	Boot Block enable bit
  7016                           ;	BBEN = OFF, Boot block disabled
  7017                           ;	Storage Area Flash enable bit
  7018                           ;	SAFEN = OFF, SAF disabled
  7019                           ;	Application Block write protection bit
  7020                           ;	WRTAPP = OFF, Application Block not write protected
  7021  300006                     	org	3145734
  7022  300006  FF                 	db	255
  7023                           
  7024                           ;Config register CONFIG4H @ 0x300007
  7025                           ;	Boot Block Write Protection bit
  7026                           ;	WRTB = OFF, Boot Block not write-protected
  7027                           ;	Configuration Register Write Protection bit
  7028                           ;	WRTC = OFF, Configuration registers not write-protected
  7029                           ;	Data EEPROM Write Protection bit
  7030                           ;	WRTD = OFF, Data EEPROM not write-protected
  7031                           ;	SAF Write protection bit
  7032                           ;	WRTSAF = OFF, SAF not Write Protected
  7033                           ;	Low Voltage Programming Enable bit
  7034                           ;	LVP = ON, Low voltage programming enabled. MCLR/VPP pin function is MCLR. MCLRE config
      +                          uration bit is ignored
  7035  300007                     	org	3145735
  7036  300007  FF                 	db	255
  7037                           
  7038                           ;Config register CONFIG5L @ 0x300008
  7039                           ;	PFM and Data EEPROM Code Protection bit
  7040                           ;	CP = OFF, PFM and Data EEPROM code protection disabled
  7041  300008                     	org	3145736
  7042  300008  FF                 	db	255
  7043                           
  7044                           ;Config register CONFIG5H @ 0x300009
  7045                           ;	unspecified, using default values
  7046  300009                     	org	3145737
  7047  300009  FF                 	db	255
  7048                           tosu	equ	0x3FFF
  7049                           tosh	equ	0x3FFE
  7050                           tosl	equ	0x3FFD
  7051                           stkptr	equ	0x3FFC
  7052                           pclatu	equ	0x3FFB
  7053                           pclath	equ	0x3FFA
  7054                           pcl	equ	0x3FF9
  7055                           tblptru	equ	0x3FF8
  7056                           tblptrh	equ	0x3FF7
  7057                           tblptrl	equ	0x3FF6
  7058                           tablat	equ	0x3FF5
  7059                           prodh	equ	0x3FF4
  7060                           prodl	equ	0x3FF3
  7061                           indf0	equ	0x3FEF
  7062                           postinc0	equ	0x3FEE
  7063                           postdec0	equ	0x3FED
  7064                           preinc0	equ	0x3FEC
  7065                           plusw0	equ	0x3FEB
  7066                           fsr0h	equ	0x3FEA
  7067                           fsr0l	equ	0x3FE9
  7068                           wreg	equ	0x3FE8
  7069                           indf1	equ	0x3FE7
  7070                           postinc1	equ	0x3FE6
  7071                           postdec1	equ	0x3FE5
  7072                           preinc1	equ	0x3FE4
  7073                           plusw1	equ	0x3FE3
  7074                           fsr1h	equ	0x3FE2
  7075                           fsr1l	equ	0x3FE1
  7076                           bsr	equ	0x3FE0
  7077                           indf2	equ	0x3FDF
  7078                           postinc2	equ	0x3FDE
  7079                           postdec2	equ	0x3FDD
  7080                           preinc2	equ	0x3FDC
  7081                           plusw2	equ	0x3FDB
  7082                           fsr2h	equ	0x3FDA
  7083                           fsr2l	equ	0x3FD9
  7084                           status	equ	0x3FD8

Data Sizes:
    Strings     19
    Constant    5
    Data        0
    BSS         414
    Persistent  0
    Stack       0

Auto Spaces:
    Space          Size  Autos    Used
    COMRAM           95     55      75
    BANK0           160     62     136
    BANK1           256      0     192
    BANK2           256      0     128
    BANK3           256      0       0
    BANK4           256      0       0
    BANK5           256      0       0
    BANK6           256      0       0
    BANK7           256      0       0
    BANK8           256      0       0
    BANK9           256      0       0
    BANK10          256      0       0
    BANK11          256      0       0
    BANK12          256      0       0
    BANK13          256      0       0
    BANK14          256      0       0
    BANK15          256      0       0
    BANK16          256      0       0
    BANK17          256      0       0
    BANK18          256      0       0
    BANK19          256      0       0
    BANK20          256      0       0
    BANK21          256      0       0
    BANK22          256      0       0
    BANK23          256      0       0
    BANK24          256      0       0
    BANK25          256      0       0
    BANK26          256      0       0
    BANK27          256      0       0
    BANK28          256      0       0
    BANK29          256      0       0
    BANK30          256      0       0
    BANK31          256      0       0

Pointer List with Targets:

    strlen@s	PTR const unsigned char  size(1) Largest target is 32
		 -> dbuf(BANK0[32]), 

    strlen@a	PTR const unsigned char  size(1) Largest target is 32
		 -> dbuf(BANK0[32]), 

    puts@s	PTR const unsigned char  size(2) Largest target is 128
		 -> buff1(BANK2[128]), 

    fputs@s	PTR const unsigned char  size(2) Largest target is 128
		 -> dbuf(BANK0[32]), buff1(BANK2[128]), 

    fputs@fp	PTR struct _IO_FILE size(2) Largest target is 11
		 -> NULL(NULL[0]), sprintf@f(BANK0[11]), 

    fputc@fp...source	PTR const unsigned char  size(2) Largest target is 0

    fputc@fp...buffer	PTR unsigned char  size(2) Largest target is 0

    fputc@fp	PTR struct _IO_FILE size(2) Largest target is 11
		 -> NULL(NULL[0]), sprintf@f(BANK0[11]), 

    atoi@s	PTR const unsigned char  size(1) Largest target is 19
		 -> STR_1(CODE[19]), 

    vfprintf@ap	PTR PTR void  size(1) Largest target is 1
		 -> sprintf@ap(BANK0[1]), 

    vfprintf@fp	PTR struct _IO_FILE size(1) Largest target is 11
		 -> sprintf@f(BANK0[11]), 

    vfprintf@fmt	PTR const unsigned char  size(1) Largest target is 19
		 -> STR_1(CODE[19]), 

    vfprintf@cfmt	PTR unsigned char  size(1) Largest target is 19
		 -> STR_1(CODE[19]), 

    vfpfcnvrt@fp	PTR struct _IO_FILE size(1) Largest target is 11
		 -> sprintf@f(BANK0[11]), 

    vfpfcnvrt@ap	PTR PTR void  size(1) Largest target is 1
		 -> sprintf@ap(BANK0[1]), 

    vfpfcnvrt@fmt	PTR PTR unsigned char  size(1) Largest target is 1
		 -> vfprintf@cfmt(BANK0[1]), 

    utoa@fp	PTR struct _IO_FILE size(1) Largest target is 11
		 -> sprintf@f(BANK0[11]), 

    pad@fp	PTR struct _IO_FILE size(1) Largest target is 11
		 -> sprintf@f(BANK0[11]), 

    pad@buf	PTR unsigned char  size(1) Largest target is 32
		 -> dbuf(BANK0[32]), 

    sprintf@fmt	PTR const unsigned char  size(1) Largest target is 19
		 -> STR_1(CODE[19]), 

    sprintf@s	PTR unsigned char  size(2) Largest target is 128
		 -> buff1(BANK2[128]), 

    sprintf@ap	PTR void [1] size(1) Largest target is 2
		 -> ?_sprintf(BANK0[2]), 

    S2335$source	PTR const unsigned char  size(2) Largest target is 0

    f...source	PTR const unsigned char  size(2) Largest target is 0

    S2335$buffer	PTR unsigned char  size(2) Largest target is 0

    f...buffer	PTR unsigned char  size(2) Largest target is 0

    TMR5_SetInterruptHandler@InterruptHandler	PTR FTN()void  size(3) Largest target is 1
		 -> Timers_Isr(), TMR5_DefaultInterruptHandler(), 

    TMR5_InterruptHandler	PTR FTN()void  size(3) Largest target is 1
		 -> Timers_Isr(), TMR5_DefaultInterruptHandler(), Absolute function(), 

    UART1_SetTxInterruptHandler@InterruptHandler	PTR FTN()void  size(3) Largest target is 1
		 -> UART1_Transmit_ISR(), 

    UART1_SetRxInterruptHandler@InterruptHandler	PTR FTN()void  size(3) Largest target is 1
		 -> UART1_Receive_ISR(), 

    UART1_SetErrorHandler@interruptHandler	PTR FTN()void  size(3) Largest target is 1
		 -> UART1_DefaultErrorHandler(), 

    UART1_SetOverrunErrorHandler@interruptHandler	PTR FTN()void  size(3) Largest target is 1
		 -> UART1_DefaultOverrunErrorHandler(), 

    UART1_SetFramingErrorHandler@interruptHandler	PTR FTN()void  size(3) Largest target is 1
		 -> UART1_DefaultFramingErrorHandler(), 

    UART1_ErrorHandler	PTR FTN()void  size(3) Largest target is 1
		 -> UART1_DefaultErrorHandler(), Absolute function(), 

    UART1_OverrunErrorHandler	PTR FTN()void  size(3) Largest target is 1
		 -> UART1_DefaultOverrunErrorHandler(), Absolute function(), 

    UART1_FramingErrorHandler	PTR FTN()void  size(3) Largest target is 1
		 -> UART1_DefaultFramingErrorHandler(), Absolute function(), 

    UART1_RxInterruptHandler	PTR FTN()void  size(3) Largest target is 1
		 -> UART1_Receive_ISR(), Absolute function(), 

    UART1_TxInterruptHandler	PTR FTN()void  size(3) Largest target is 1
		 -> UART1_Transmit_ISR(), Absolute function(), 

    TMR6_SetInterruptHandler@InterruptHandler	PTR FTN()void  size(3) Largest target is 1
		 -> Led_Blink(), TMR6_DefaultInterruptHandler(), 

    TMR6_InterruptHandler	PTR FTN()void  size(3) Largest target is 1
		 -> Led_Blink(), TMR6_DefaultInterruptHandler(), Absolute function(), 

    ADCC_SetADIInterruptHandler@InterruptHandler	PTR FTN()void  size(3) Largest target is 1
		 -> Adc_Isr(), ADCC_DefaultInterruptHandler(), 

    ADCC_ADI_InterruptHandler	PTR FTN()void  size(3) Largest target is 1
		 -> Adc_Isr(), Absolute function(), ADCC_DefaultInterruptHandler(), 


Critical Paths under _main in COMRAM

    _vfpfcnvrt->_utoa
    _utoa->_pad
    _pad->_fputs
    _atoi->_isspace
    _puts->_fputs
    _fputs->_fputc
    _fputc->_putch
    _putch->_UART1_Write
    _SYSTEM_Initialize->_TMR5_Initialize
    _UART1_Initialize->_UART1_SetErrorHandler
    _UART1_Initialize->_UART1_SetFramingErrorHandler
    _UART1_Initialize->_UART1_SetOverrunErrorHandler
    _UART1_Initialize->_UART1_SetRxInterruptHandler
    _UART1_Initialize->_UART1_SetTxInterruptHandler
    _TMR6_Initialize->_TMR6_SetInterruptHandler
    _TMR5_Initialize->_TMR5_SetInterruptHandler
    _ADCC_Initialize->_ADCC_SetADIInterruptHandler

Critical Paths under _ADCC_ISR in COMRAM

    _ADCC_ISR->_Adc_Isr
    _Adc_Isr->_ADCC_GetConversionResult

Critical Paths under _TMR6_ISR in COMRAM

    _TMR6_CallBack->_Led_Blink

Critical Paths under _Default_ISR in COMRAM

    None.

Critical Paths under _UART1_tx_vect_isr in COMRAM

    None.

Critical Paths under _UART1_rx_vect_isr in COMRAM

    None.

Critical Paths under _TMR5_ISR in COMRAM

    _TMR5_ISR->_Timers_Isr

Critical Paths under _main in BANK0

    _main->_sprintf
    _sprintf->_vfprintf
    _vfprintf->_vfpfcnvrt
    _vfpfcnvrt->_utoa

Critical Paths under _ADCC_ISR in BANK0

    None.

Critical Paths under _TMR6_ISR in BANK0

    None.

Critical Paths under _Default_ISR in BANK0

    None.

Critical Paths under _UART1_tx_vect_isr in BANK0

    None.

Critical Paths under _UART1_rx_vect_isr in BANK0

    None.

Critical Paths under _TMR5_ISR in BANK0

    None.

Critical Paths under _main in BANK1

    None.

Critical Paths under _ADCC_ISR in BANK1

    None.

Critical Paths under _TMR6_ISR in BANK1

    None.

Critical Paths under _Default_ISR in BANK1

    None.

Critical Paths under _UART1_tx_vect_isr in BANK1

    None.

Critical Paths under _UART1_rx_vect_isr in BANK1

    None.

Critical Paths under _TMR5_ISR in BANK1

    None.

Critical Paths under _main in BANK2

    None.

Critical Paths under _ADCC_ISR in BANK2

    None.

Critical Paths under _TMR6_ISR in BANK2

    None.

Critical Paths under _Default_ISR in BANK2

    None.

Critical Paths under _UART1_tx_vect_isr in BANK2

    None.

Critical Paths under _UART1_rx_vect_isr in BANK2

    None.

Critical Paths under _TMR5_ISR in BANK2

    None.

Critical Paths under _main in BANK3

    None.

Critical Paths under _ADCC_ISR in BANK3

    None.

Critical Paths under _TMR6_ISR in BANK3

    None.

Critical Paths under _Default_ISR in BANK3

    None.

Critical Paths under _UART1_tx_vect_isr in BANK3

    None.

Critical Paths under _UART1_rx_vect_isr in BANK3

    None.

Critical Paths under _TMR5_ISR in BANK3

    None.

Critical Paths under _main in BANK4

    None.

Critical Paths under _ADCC_ISR in BANK4

    None.

Critical Paths under _TMR6_ISR in BANK4

    None.

Critical Paths under _Default_ISR in BANK4

    None.

Critical Paths under _UART1_tx_vect_isr in BANK4

    None.

Critical Paths under _UART1_rx_vect_isr in BANK4

    None.

Critical Paths under _TMR5_ISR in BANK4

    None.

Critical Paths under _main in BANK5

    None.

Critical Paths under _ADCC_ISR in BANK5

    None.

Critical Paths under _TMR6_ISR in BANK5

    None.

Critical Paths under _Default_ISR in BANK5

    None.

Critical Paths under _UART1_tx_vect_isr in BANK5

    None.

Critical Paths under _UART1_rx_vect_isr in BANK5

    None.

Critical Paths under _TMR5_ISR in BANK5

    None.

Critical Paths under _main in BANK6

    None.

Critical Paths under _ADCC_ISR in BANK6

    None.

Critical Paths under _TMR6_ISR in BANK6

    None.

Critical Paths under _Default_ISR in BANK6

    None.

Critical Paths under _UART1_tx_vect_isr in BANK6

    None.

Critical Paths under _UART1_rx_vect_isr in BANK6

    None.

Critical Paths under _TMR5_ISR in BANK6

    None.

Critical Paths under _main in BANK7

    None.

Critical Paths under _ADCC_ISR in BANK7

    None.

Critical Paths under _TMR6_ISR in BANK7

    None.

Critical Paths under _Default_ISR in BANK7

    None.

Critical Paths under _UART1_tx_vect_isr in BANK7

    None.

Critical Paths under _UART1_rx_vect_isr in BANK7

    None.

Critical Paths under _TMR5_ISR in BANK7

    None.

Critical Paths under _main in BANK8

    None.

Critical Paths under _ADCC_ISR in BANK8

    None.

Critical Paths under _TMR6_ISR in BANK8

    None.

Critical Paths under _Default_ISR in BANK8

    None.

Critical Paths under _UART1_tx_vect_isr in BANK8

    None.

Critical Paths under _UART1_rx_vect_isr in BANK8

    None.

Critical Paths under _TMR5_ISR in BANK8

    None.

Critical Paths under _main in BANK9

    None.

Critical Paths under _ADCC_ISR in BANK9

    None.

Critical Paths under _TMR6_ISR in BANK9

    None.

Critical Paths under _Default_ISR in BANK9

    None.

Critical Paths under _UART1_tx_vect_isr in BANK9

    None.

Critical Paths under _UART1_rx_vect_isr in BANK9

    None.

Critical Paths under _TMR5_ISR in BANK9

    None.

Critical Paths under _main in BANK10

    None.

Critical Paths under _ADCC_ISR in BANK10

    None.

Critical Paths under _TMR6_ISR in BANK10

    None.

Critical Paths under _Default_ISR in BANK10

    None.

Critical Paths under _UART1_tx_vect_isr in BANK10

    None.

Critical Paths under _UART1_rx_vect_isr in BANK10

    None.

Critical Paths under _TMR5_ISR in BANK10

    None.

Critical Paths under _main in BANK11

    None.

Critical Paths under _ADCC_ISR in BANK11

    None.

Critical Paths under _TMR6_ISR in BANK11

    None.

Critical Paths under _Default_ISR in BANK11

    None.

Critical Paths under _UART1_tx_vect_isr in BANK11

    None.

Critical Paths under _UART1_rx_vect_isr in BANK11

    None.

Critical Paths under _TMR5_ISR in BANK11

    None.

Critical Paths under _main in BANK12

    None.

Critical Paths under _ADCC_ISR in BANK12

    None.

Critical Paths under _TMR6_ISR in BANK12

    None.

Critical Paths under _Default_ISR in BANK12

    None.

Critical Paths under _UART1_tx_vect_isr in BANK12

    None.

Critical Paths under _UART1_rx_vect_isr in BANK12

    None.

Critical Paths under _TMR5_ISR in BANK12

    None.

Critical Paths under _main in BANK13

    None.

Critical Paths under _ADCC_ISR in BANK13

    None.

Critical Paths under _TMR6_ISR in BANK13

    None.

Critical Paths under _Default_ISR in BANK13

    None.

Critical Paths under _UART1_tx_vect_isr in BANK13

    None.

Critical Paths under _UART1_rx_vect_isr in BANK13

    None.

Critical Paths under _TMR5_ISR in BANK13

    None.

Critical Paths under _main in BANK14

    None.

Critical Paths under _ADCC_ISR in BANK14

    None.

Critical Paths under _TMR6_ISR in BANK14

    None.

Critical Paths under _Default_ISR in BANK14

    None.

Critical Paths under _UART1_tx_vect_isr in BANK14

    None.

Critical Paths under _UART1_rx_vect_isr in BANK14

    None.

Critical Paths under _TMR5_ISR in BANK14

    None.

Critical Paths under _main in BANK15

    None.

Critical Paths under _ADCC_ISR in BANK15

    None.

Critical Paths under _TMR6_ISR in BANK15

    None.

Critical Paths under _Default_ISR in BANK15

    None.

Critical Paths under _UART1_tx_vect_isr in BANK15

    None.

Critical Paths under _UART1_rx_vect_isr in BANK15

    None.

Critical Paths under _TMR5_ISR in BANK15

    None.

Critical Paths under _main in BANK16

    None.

Critical Paths under _ADCC_ISR in BANK16

    None.

Critical Paths under _TMR6_ISR in BANK16

    None.

Critical Paths under _Default_ISR in BANK16

    None.

Critical Paths under _UART1_tx_vect_isr in BANK16

    None.

Critical Paths under _UART1_rx_vect_isr in BANK16

    None.

Critical Paths under _TMR5_ISR in BANK16

    None.

Critical Paths under _main in BANK17

    None.

Critical Paths under _ADCC_ISR in BANK17

    None.

Critical Paths under _TMR6_ISR in BANK17

    None.

Critical Paths under _Default_ISR in BANK17

    None.

Critical Paths under _UART1_tx_vect_isr in BANK17

    None.

Critical Paths under _UART1_rx_vect_isr in BANK17

    None.

Critical Paths under _TMR5_ISR in BANK17

    None.

Critical Paths under _main in BANK18

    None.

Critical Paths under _ADCC_ISR in BANK18

    None.

Critical Paths under _TMR6_ISR in BANK18

    None.

Critical Paths under _Default_ISR in BANK18

    None.

Critical Paths under _UART1_tx_vect_isr in BANK18

    None.

Critical Paths under _UART1_rx_vect_isr in BANK18

    None.

Critical Paths under _TMR5_ISR in BANK18

    None.

Critical Paths under _main in BANK19

    None.

Critical Paths under _ADCC_ISR in BANK19

    None.

Critical Paths under _TMR6_ISR in BANK19

    None.

Critical Paths under _Default_ISR in BANK19

    None.

Critical Paths under _UART1_tx_vect_isr in BANK19

    None.

Critical Paths under _UART1_rx_vect_isr in BANK19

    None.

Critical Paths under _TMR5_ISR in BANK19

    None.

Critical Paths under _main in BANK20

    None.

Critical Paths under _ADCC_ISR in BANK20

    None.

Critical Paths under _TMR6_ISR in BANK20

    None.

Critical Paths under _Default_ISR in BANK20

    None.

Critical Paths under _UART1_tx_vect_isr in BANK20

    None.

Critical Paths under _UART1_rx_vect_isr in BANK20

    None.

Critical Paths under _TMR5_ISR in BANK20

    None.

Critical Paths under _main in BANK21

    None.

Critical Paths under _ADCC_ISR in BANK21

    None.

Critical Paths under _TMR6_ISR in BANK21

    None.

Critical Paths under _Default_ISR in BANK21

    None.

Critical Paths under _UART1_tx_vect_isr in BANK21

    None.

Critical Paths under _UART1_rx_vect_isr in BANK21

    None.

Critical Paths under _TMR5_ISR in BANK21

    None.

Critical Paths under _main in BANK22

    None.

Critical Paths under _ADCC_ISR in BANK22

    None.

Critical Paths under _TMR6_ISR in BANK22

    None.

Critical Paths under _Default_ISR in BANK22

    None.

Critical Paths under _UART1_tx_vect_isr in BANK22

    None.

Critical Paths under _UART1_rx_vect_isr in BANK22

    None.

Critical Paths under _TMR5_ISR in BANK22

    None.

Critical Paths under _main in BANK23

    None.

Critical Paths under _ADCC_ISR in BANK23

    None.

Critical Paths under _TMR6_ISR in BANK23

    None.

Critical Paths under _Default_ISR in BANK23

    None.

Critical Paths under _UART1_tx_vect_isr in BANK23

    None.

Critical Paths under _UART1_rx_vect_isr in BANK23

    None.

Critical Paths under _TMR5_ISR in BANK23

    None.

Critical Paths under _main in BANK24

    None.

Critical Paths under _ADCC_ISR in BANK24

    None.

Critical Paths under _TMR6_ISR in BANK24

    None.

Critical Paths under _Default_ISR in BANK24

    None.

Critical Paths under _UART1_tx_vect_isr in BANK24

    None.

Critical Paths under _UART1_rx_vect_isr in BANK24

    None.

Critical Paths under _TMR5_ISR in BANK24

    None.

Critical Paths under _main in BANK25

    None.

Critical Paths under _ADCC_ISR in BANK25

    None.

Critical Paths under _TMR6_ISR in BANK25

    None.

Critical Paths under _Default_ISR in BANK25

    None.

Critical Paths under _UART1_tx_vect_isr in BANK25

    None.

Critical Paths under _UART1_rx_vect_isr in BANK25

    None.

Critical Paths under _TMR5_ISR in BANK25

    None.

Critical Paths under _main in BANK26

    None.

Critical Paths under _ADCC_ISR in BANK26

    None.

Critical Paths under _TMR6_ISR in BANK26

    None.

Critical Paths under _Default_ISR in BANK26

    None.

Critical Paths under _UART1_tx_vect_isr in BANK26

    None.

Critical Paths under _UART1_rx_vect_isr in BANK26

    None.

Critical Paths under _TMR5_ISR in BANK26

    None.

Critical Paths under _main in BANK27

    None.

Critical Paths under _ADCC_ISR in BANK27

    None.

Critical Paths under _TMR6_ISR in BANK27

    None.

Critical Paths under _Default_ISR in BANK27

    None.

Critical Paths under _UART1_tx_vect_isr in BANK27

    None.

Critical Paths under _UART1_rx_vect_isr in BANK27

    None.

Critical Paths under _TMR5_ISR in BANK27

    None.

Critical Paths under _main in BANK28

    None.

Critical Paths under _ADCC_ISR in BANK28

    None.

Critical Paths under _TMR6_ISR in BANK28

    None.

Critical Paths under _Default_ISR in BANK28

    None.

Critical Paths under _UART1_tx_vect_isr in BANK28

    None.

Critical Paths under _UART1_rx_vect_isr in BANK28

    None.

Critical Paths under _TMR5_ISR in BANK28

    None.

Critical Paths under _main in BANK29

    None.

Critical Paths under _ADCC_ISR in BANK29

    None.

Critical Paths under _TMR6_ISR in BANK29

    None.

Critical Paths under _Default_ISR in BANK29

    None.

Critical Paths under _UART1_tx_vect_isr in BANK29

    None.

Critical Paths under _UART1_rx_vect_isr in BANK29

    None.

Critical Paths under _TMR5_ISR in BANK29

    None.

Critical Paths under _main in BANK30

    None.

Critical Paths under _ADCC_ISR in BANK30

    None.

Critical Paths under _TMR6_ISR in BANK30

    None.

Critical Paths under _Default_ISR in BANK30

    None.

Critical Paths under _UART1_tx_vect_isr in BANK30

    None.

Critical Paths under _UART1_rx_vect_isr in BANK30

    None.

Critical Paths under _TMR5_ISR in BANK30

    None.

Critical Paths under _main in BANK31

    None.

Critical Paths under _ADCC_ISR in BANK31

    None.

Critical Paths under _TMR6_ISR in BANK31

    None.

Critical Paths under _Default_ISR in BANK31

    None.

Critical Paths under _UART1_tx_vect_isr in BANK31

    None.

Critical Paths under _UART1_rx_vect_isr in BANK31

    None.

Critical Paths under _TMR5_ISR in BANK31

    None.

Call Graph Tables:

 ---------------------------------------------------------------------------------
 (Depth) Function   	        Calls       Base Space   Used Autos Params    Refs
 ---------------------------------------------------------------------------------
 (0) _main                                                 1     1      0   16178
                                             61 BANK0      1     1      0
        _ADCC_SetADIInterruptHandler
                     _DAC1_SetOutput
                  _SYSTEM_Initialize
           _TMR5_SetInterruptHandler
           _TMR6_SetInterruptHandler
                        _display_led
                               _puts
                            _sprintf
 ---------------------------------------------------------------------------------
 (1) _sprintf                                             21    14      7   10606
                                             42 BANK0     19    12      7
                           _vfprintf
 ---------------------------------------------------------------------------------
 (2) _vfprintf                                             4     1      3   10114
                                             38 BANK0      4     1      3
                          _vfpfcnvrt
 ---------------------------------------------------------------------------------
 (3) _vfpfcnvrt                                           41    38      3    9620
                                             23 BANK0     15    12      3
                               _atoi
                              _fputc
                            _isdigit
                               _utoa
 ---------------------------------------------------------------------------------
 (4) _utoa                                                31    22      9    5627
                                             47 COMRAM     8     8      0
                                              0 BANK0     23    14      9
                            ___lodiv
                            ___lomod
                                _pad
 ---------------------------------------------------------------------------------
 (5) _pad                                                  9     5      4    4215
                                             38 COMRAM     9     5      4
                              _fputc
                              _fputs
                             _strlen
 ---------------------------------------------------------------------------------
 (6) _strlen                                               3     1      2     220
                                             20 COMRAM     3     1      2
 ---------------------------------------------------------------------------------
 (5) ___lomod                                             17     1     16     412
                                             20 COMRAM    17     1     16
 ---------------------------------------------------------------------------------
 (5) ___lodiv                                             25     9     16     421
                                             20 COMRAM    25     9     16
 ---------------------------------------------------------------------------------
 (4) _atoi                                                10     8      2    1454
                                             27 COMRAM    10     8      2
                             ___wmul
                            _isdigit
                            _isspace
 ---------------------------------------------------------------------------------
 (5) _isspace                                              7     5      2     259
                                             20 COMRAM     7     5      2
 ---------------------------------------------------------------------------------
 (4) _isdigit                                              6     4      2     281
                                             20 COMRAM     6     4      2
 ---------------------------------------------------------------------------------
 (5) ___wmul                                               6     2      4     462
                                             20 COMRAM     6     2      4
 ---------------------------------------------------------------------------------
 (1) _puts                                                 5     3      2    3540
                                             38 COMRAM     3     1      2
                              _fputc
                              _fputs
 ---------------------------------------------------------------------------------
 (6) _fputs                                                7     3      4    2038
                                             31 COMRAM     7     3      4
                              _fputc
 ---------------------------------------------------------------------------------
 (7) _fputc                                                9     5      4    1334
                                             22 COMRAM     9     5      4
                              _putch
 ---------------------------------------------------------------------------------
 (8) _putch                                                1     1      0      93
                                             21 COMRAM     1     1      0
                        _UART1_Write
 ---------------------------------------------------------------------------------
 (9) _UART1_Write                                          1     1      0      62
                                             20 COMRAM     1     1      0
 ---------------------------------------------------------------------------------
 (1) _display_led                                          3     3      0      31
                                             20 COMRAM     3     3      0
 ---------------------------------------------------------------------------------
 (1) _SYSTEM_Initialize                                    0     0      0    1272
                    _ADCC_Initialize
                    _DAC1_Initialize
               _INTERRUPT_Initialize
              _OSCILLATOR_Initialize
             _PIN_MANAGER_Initialize
                     _PMD_Initialize
                    _SPI1_Initialize
                    _TMR5_Initialize
                    _TMR6_Initialize
                   _UART1_Initialize
 ---------------------------------------------------------------------------------
 (2) _UART1_Initialize                                     0     0      0     605
              _UART1_SetErrorHandler
       _UART1_SetFramingErrorHandler
       _UART1_SetOverrunErrorHandler
        _UART1_SetRxInterruptHandler
        _UART1_SetTxInterruptHandler
 ---------------------------------------------------------------------------------
 (3) _UART1_SetTxInterruptHandler                          3     0      3     121
                                             20 COMRAM     3     0      3
 ---------------------------------------------------------------------------------
 (3) _UART1_SetRxInterruptHandler                          3     0      3     121
                                             20 COMRAM     3     0      3
 ---------------------------------------------------------------------------------
 (3) _UART1_SetOverrunErrorHandler                         3     0      3     121
                                             20 COMRAM     3     0      3
 ---------------------------------------------------------------------------------
 (3) _UART1_SetFramingErrorHandler                         3     0      3     121
                                             20 COMRAM     3     0      3
 ---------------------------------------------------------------------------------
 (3) _UART1_SetErrorHandler                                3     0      3     121
                                             20 COMRAM     3     0      3
 ---------------------------------------------------------------------------------
 (2) _TMR6_Initialize                                      0     0      0     211
           _TMR6_SetInterruptHandler
 ---------------------------------------------------------------------------------
 (1) _TMR6_SetInterruptHandler                             3     0      3     211
                                             20 COMRAM     3     0      3
 ---------------------------------------------------------------------------------
 (2) _TMR5_Initialize                                      2     2      0     211
                                             23 COMRAM     2     2      0
           _TMR5_SetInterruptHandler
 ---------------------------------------------------------------------------------
 (1) _TMR5_SetInterruptHandler                             3     0      3     211
                                             20 COMRAM     3     0      3
 ---------------------------------------------------------------------------------
 (2) _SPI1_Initialize                                      0     0      0       0
 ---------------------------------------------------------------------------------
 (2) _PMD_Initialize                                       0     0      0       0
 ---------------------------------------------------------------------------------
 (2) _PIN_MANAGER_Initialize                               0     0      0       0
 ---------------------------------------------------------------------------------
 (2) _OSCILLATOR_Initialize                                0     0      0       0
 ---------------------------------------------------------------------------------
 (2) _INTERRUPT_Initialize                                 1     1      0      34
                                             20 COMRAM     1     1      0
 ---------------------------------------------------------------------------------
 (2) _DAC1_Initialize                                      0     0      0       0
 ---------------------------------------------------------------------------------
 (2) _ADCC_Initialize                                      0     0      0     211
        _ADCC_SetADIInterruptHandler
 ---------------------------------------------------------------------------------
 (3) _ADCC_SetADIInterruptHandler                          3     0      3     211
                                             20 COMRAM     3     0      3
 ---------------------------------------------------------------------------------
 (1) _DAC1_SetOutput                                       1     1      0      31
                                             20 COMRAM     1     1      0
 ---------------------------------------------------------------------------------
 Estimated maximum stack depth 9
 ---------------------------------------------------------------------------------
 (Depth) Function   	        Calls       Base Space   Used Autos Params    Refs
 ---------------------------------------------------------------------------------
 (10) _ADCC_ISR                                            2     2      0       0
                                              5 COMRAM     2     2      0
                   Absolute function *
       _ADCC_DefaultInterruptHandler *
                            _Adc_Isr *
 ---------------------------------------------------------------------------------
 (11) _Adc_Isr                                             1     1      0       0
                                              4 COMRAM     1     1      0
           _ADCC_GetConversionResult
 ---------------------------------------------------------------------------------
 (12) _ADCC_GetConversionResult                            4     2      2       0
                                              0 COMRAM     4     2      2
 ---------------------------------------------------------------------------------
 (11) _ADCC_DefaultInterruptHandler                        0     0      0       0
 ---------------------------------------------------------------------------------
 (11) Absolute function(Fake)                              0     0      0       0
 ---------------------------------------------------------------------------------
 Estimated maximum stack depth 12
 ---------------------------------------------------------------------------------
 (Depth) Function   	        Calls       Base Space   Used Autos Params    Refs
 ---------------------------------------------------------------------------------
 (10) _TMR6_ISR                                            2     2      0       0
                                              8 COMRAM     2     2      0
                      _TMR6_CallBack
 ---------------------------------------------------------------------------------
 (11) _TMR6_CallBack                                       0     0      0       0
                   Absolute function *
                          _Led_Blink *
       _TMR6_DefaultInterruptHandler *
 ---------------------------------------------------------------------------------
 (12) _TMR6_DefaultInterruptHandler                        0     0      0       0
 ---------------------------------------------------------------------------------
 (12) _Led_Blink                                           1     1      0       0
                                              7 COMRAM     1     1      0
 ---------------------------------------------------------------------------------
 (11) Absolute function(Fake)                              0     0      0       0
 ---------------------------------------------------------------------------------
 Estimated maximum stack depth 12
 ---------------------------------------------------------------------------------
 (Depth) Function   	        Calls       Base Space   Used Autos Params    Refs
 ---------------------------------------------------------------------------------
 (10) _Default_ISR                                         0     0      0       0
 ---------------------------------------------------------------------------------
 Estimated maximum stack depth 10
 ---------------------------------------------------------------------------------
 (Depth) Function   	        Calls       Base Space   Used Autos Params    Refs
 ---------------------------------------------------------------------------------
 (10) _UART1_tx_vect_isr                                   2     2      0       0
                                             10 COMRAM     2     2      0
                   Absolute function *
                 _UART1_Transmit_ISR *
 ---------------------------------------------------------------------------------
 (11) _UART1_Transmit_ISR                                  0     0      0       0
 ---------------------------------------------------------------------------------
 (11) Absolute function(Fake)                              0     0      0       0
 ---------------------------------------------------------------------------------
 Estimated maximum stack depth 11
 ---------------------------------------------------------------------------------
 (Depth) Function   	        Calls       Base Space   Used Autos Params    Refs
 ---------------------------------------------------------------------------------
 (10) _UART1_rx_vect_isr                                   2     2      0       0
                                             12 COMRAM     2     2      0
                   Absolute function *
                  _UART1_Receive_ISR *
 ---------------------------------------------------------------------------------
 (11) _UART1_Receive_ISR                                   0     0      0       0
                   Absolute function *
          _UART1_DefaultErrorHandler *
   _UART1_DefaultFramingErrorHandler *
   _UART1_DefaultOverrunErrorHandler *
                _UART1_RxDataHandler
 ---------------------------------------------------------------------------------
 (12) _UART1_DefaultOverrunErrorHandler                    0     0      0       0
 ---------------------------------------------------------------------------------
 (12) _UART1_DefaultFramingErrorHandler                    0     0      0       0
 ---------------------------------------------------------------------------------
 (12) _UART1_DefaultErrorHandler                           0     0      0       0
                _UART1_RxDataHandler
 ---------------------------------------------------------------------------------
 (12) _UART1_RxDataHandler                                 0     0      0       0
 ---------------------------------------------------------------------------------
 (11) Absolute function(Fake)                              0     0      0       0
 ---------------------------------------------------------------------------------
 Estimated maximum stack depth 12
 ---------------------------------------------------------------------------------
 (Depth) Function   	        Calls       Base Space   Used Autos Params    Refs
 ---------------------------------------------------------------------------------
 (10) _TMR5_ISR                                            2     2      0     319
                                             18 COMRAM     2     2      0
                   Absolute function *
       _TMR5_DefaultInterruptHandler *
                    _TMR5_WriteTimer
                         _Timers_Isr *
 ---------------------------------------------------------------------------------
 (11) _Timers_Isr                                          4     4      0      90
                                             14 COMRAM     4     4      0
 ---------------------------------------------------------------------------------
 (11) _TMR5_WriteTimer                                     2     0      2     229
                                             14 COMRAM     2     0      2
 ---------------------------------------------------------------------------------
 (11) _TMR5_DefaultInterruptHandler                        0     0      0       0
 ---------------------------------------------------------------------------------
 (11) Absolute function(Fake)                              0     0      0       0
 ---------------------------------------------------------------------------------
 Estimated maximum stack depth 11
 ---------------------------------------------------------------------------------

 Call Graph Graphs:

 _main (ROOT)
   _ADCC_SetADIInterruptHandler
   _DAC1_SetOutput
   _SYSTEM_Initialize
     _ADCC_Initialize
       _ADCC_SetADIInterruptHandler
     _DAC1_Initialize
     _INTERRUPT_Initialize
     _OSCILLATOR_Initialize
     _PIN_MANAGER_Initialize
     _PMD_Initialize
     _SPI1_Initialize
     _TMR5_Initialize
       _TMR5_SetInterruptHandler
     _TMR6_Initialize
       _TMR6_SetInterruptHandler
     _UART1_Initialize
       _UART1_SetErrorHandler
       _UART1_SetFramingErrorHandler
       _UART1_SetOverrunErrorHandler
       _UART1_SetRxInterruptHandler
       _UART1_SetTxInterruptHandler
   _TMR5_SetInterruptHandler
   _TMR6_SetInterruptHandler
   _display_led
   _puts
     _fputc
       _putch
         _UART1_Write
     _fputs
       _fputc
   _sprintf
     _vfprintf
       _vfpfcnvrt
         _atoi
           ___wmul
           _isdigit
           _isspace
         _fputc
         _isdigit
         _utoa
           ___lodiv
           ___lomod
           _pad
             _fputc
             _fputs
             _strlen

 _ADCC_ISR (ROOT)
   Absolute function(Fake) *
   _ADCC_DefaultInterruptHandler *
   _Adc_Isr *
     _ADCC_GetConversionResult

 _TMR6_ISR (ROOT)
   _TMR6_CallBack
     Absolute function(Fake) *
     _Led_Blink *
     _TMR6_DefaultInterruptHandler *

 _Default_ISR (ROOT)

 _UART1_tx_vect_isr (ROOT)
   Absolute function(Fake) *
   _UART1_Transmit_ISR *

 _UART1_rx_vect_isr (ROOT)
   Absolute function(Fake) *
   _UART1_Receive_ISR *
     Absolute function(Fake) *
     _UART1_DefaultErrorHandler *
       _UART1_RxDataHandler
     _UART1_DefaultFramingErrorHandler *
     _UART1_DefaultOverrunErrorHandler *
     _UART1_RxDataHandler *

 _TMR5_ISR (ROOT)
   Absolute function(Fake) *
   _TMR5_DefaultInterruptHandler *
   _TMR5_WriteTimer *
   _Timers_Isr *

 Address spaces:
Name               Size   Autos  Total    Cost      Usage
BIGRAM            1FFF      0       0     110        0.0%
EEDATA             400      0       0       0        0.0%
BITBIGSFRllhhhh    22A      0       0      84        0.0%
BITBIGSFRllllll    181      0       0     108        0.0%
BITBANK31          100      0       0      66        0.0%
BANK31             100      0       0      67        0.0%
BITBANK30          100      0       0      64        0.0%
BANK30             100      0       0      65        0.0%
BITBANK29          100      0       0      62        0.0%
BANK29             100      0       0      63        0.0%
BITBANK28          100      0       0      60        0.0%
BANK28             100      0       0      61        0.0%
BITBANK27          100      0       0      58        0.0%
BANK27             100      0       0      59        0.0%
BITBANK26          100      0       0      56        0.0%
BANK26             100      0       0      57        0.0%
BITBANK25          100      0       0      54        0.0%
BANK25             100      0       0      55        0.0%
BITBANK24          100      0       0      52        0.0%
BANK24             100      0       0      53        0.0%
BITBANK23          100      0       0      50        0.0%
BANK23             100      0       0      51        0.0%
BITBANK22          100      0       0      48        0.0%
BANK22             100      0       0      49        0.0%
BITBANK21          100      0       0      46        0.0%
BANK21             100      0       0      47        0.0%
BITBANK20          100      0       0      44        0.0%
BANK20             100      0       0      45        0.0%
BITBANK19          100      0       0      42        0.0%
BANK19             100      0       0      43        0.0%
BITBANK18          100      0       0      40        0.0%
BANK18             100      0       0      41        0.0%
BITBANK17          100      0       0      38        0.0%
BANK17             100      0       0      39        0.0%
BITBANK16          100      0       0      36        0.0%
BANK16             100      0       0      37        0.0%
BITBANK15          100      0       0      34        0.0%
BANK15             100      0       0      35        0.0%
BITBANK14          100      0       0      32        0.0%
BANK14             100      0       0      33        0.0%
BITBANK13          100      0       0      30        0.0%
BANK13             100      0       0      31        0.0%
BITBANK12          100      0       0      28        0.0%
BANK12             100      0       0      29        0.0%
BITBANK11          100      0       0      26        0.0%
BANK11             100      0       0      27        0.0%
BITBANK10          100      0       0      24        0.0%
BANK10             100      0       0      25        0.0%
BITBANK9           100      0       0      22        0.0%
BANK9              100      0       0      23        0.0%
BITBANK8           100      0       0      20        0.0%
BANK8              100      0       0      21        0.0%
BITBANK7           100      0       0      18        0.0%
BANK7              100      0       0      19        0.0%
BITBANK6           100      0       0      16        0.0%
BANK6              100      0       0      17        0.0%
BITBANK5           100      0       0      14        0.0%
BANK5              100      0       0      15        0.0%
BITBANK4           100      0       0      12        0.0%
BANK4              100      0       0      13        0.0%
BITBANK3           100      0       0      10        0.0%
BANK3              100      0       0      11        0.0%
BITBANK2           100      0       0       8        0.0%
BANK2              100      0      80       9       50.0%
BITBANK1           100      0       0       6        0.0%
BANK1              100      0      C0       7       75.0%
BITBIGSFRllhhhh     CB      0       0      80        0.0%
BITBIGSFRllhhhh     A1      0       0      77        0.0%
BITBANK0            A0      0       0       4        0.0%
BANK0               A0     3E      88       5       85.0%
BITBIGSFRllhhhh     92      0       0      73        0.0%
BITCOMRAM           5F      0       0       0        0.0%
COMRAM              5F     37      4B       1       78.9%
BITBIGSFRllhhhl     49      0       0      86        0.0%
BITBIGSFRllhhhh     3F      0       0      75        0.0%
BITBIGSFRllllll     33      0       0      97        0.0%
BITBIGSFRllllll     29      0       0      95        0.0%
BITBIGSFRhhhhh      28      0       0      68        0.0%
BITBIGSFRllhhhh     1C      0       0      72        0.0%
BITBIGSFRllllll     16      0       0     100        0.0%
BITBIGSFRllllll     11      0       0      99        0.0%
BITBIGSFRlllllh      B      0       0      94        0.0%
BITBIGSFRllhhl       B      0       0      87        0.0%
BITBIGSFRhhl         A      0       0      70        0.0%
BITBIGSFRllllll      7      0       0     105        0.0%
BITBIGSFRllllll      7      0       0     102        0.0%
BITBIGSFRllllll      5      0       0     101        0.0%
BITBIGSFRllhhhh      5      0       0      85        0.0%
BITBIGSFRllllhl      5      0       0      93        0.0%
BITBIGSFRlllhl       5      0       0      91        0.0%
BITBIGSFRllhll       5      0       0      89        0.0%
BITBIGSFRllllll      4      0       0     103        0.0%
BITBIGSFRllllll      4      0       0     106        0.0%
BITBIGSFRllhlh       4      0       0      88        0.0%
BITBIGSFRlllhh       4      0       0      90        0.0%
BITBIGSFRllllhh      4      0       0      92        0.0%
BITBIGSFRllhhhh      2      0       0      81        0.0%
BITBIGSFRllhhhh      2      0       0      82        0.0%
BITBIGSFRhll         2      0       0      71        0.0%
BITBIGSFRllhhhh      1      0       0      83        0.0%
BITBIGSFRllhhhh      1      0       0      79        0.0%
BITBIGSFRllhhhh      1      0       0      78        0.0%
BITBIGSFRllllll      1      0       0     107        0.0%
BITBIGSFRhhhl        1      0       0      69        0.0%
BITBIGSFRllllll      1      0       0     104        0.0%
BITBIGSFRllhhhh      1      0       0      74        0.0%
BITBIGSFRllllll      1      0       0      98        0.0%
BITBIGSFRllhhhh      1      0       0      76        0.0%
BITBIGSFRllllll      1      0       0      96        0.0%
BIGSFR               0      0       0     200        0.0%
BITSFR_8             0      0       0     200        0.0%
SFR_8                0      0       0     200        0.0%
BITSFR_7             0      0       0     200        0.0%
SFR_7                0      0       0     200        0.0%
BITSFR_6             0      0       0     200        0.0%
SFR_6                0      0       0     200        0.0%
BITSFR_5             0      0       0     200        0.0%
SFR_5                0      0       0     200        0.0%
BITSFR_4             0      0       0     200        0.0%
SFR_4                0      0       0     200        0.0%
BITSFR_3             0      0       0     200        0.0%
SFR_3                0      0       0     200        0.0%
BITSFR_2             0      0       0     200        0.0%
SFR_2                0      0       0     200        0.0%
BITSFR_1             0      0       0     200        0.0%
SFR_1                0      0       0     200        0.0%
BITSFR               0      0       0     200        0.0%
SFR                  0      0       0     200        0.0%
STACK                0      0       0       2        0.0%
NULL                 0      0       0       0        0.0%
ABS                  0      0     213     109        0.0%
DATA                 0      0     213       3        0.0%
CODE                 0      0       0       0        0.0%


Microchip Technology PIC18 Macro Assembler V2.35 build 20211206165544 
Symbol Table                                                                                   Sun Feb 20 07:01:48 2022

            __end_of_TMR5_SetInterruptHandler 326E                                  ?_display_led 0001  
                         ___wmul@multiplicand 0017                             ??_TMR5_WriteTimer 0011  
                             _DAC1_Initialize 327C                                           l185 31D6  
                                         l616 2F80                                           l920 2792  
                                         l931 279E                                           l941 27AA  
                                         l926 2798                                           l951 27B6  
                                         l936 27A4                                           l961 27C2  
                                         l946 27B0                                           l971 27CE  
                                         l956 27BC                                           l981 27DA  
                                         l966 27C8                                           l976 27D4  
                                         _GIE 01FE97                                           _ana 0038  
                                         _pad 2B00                                           tosl 003FFD  
                                         wreg 003FE8                                _DAC1_SetOutput 3292  
                ?_ADCC_SetADIInterruptHandler 0015                            _UART1_Transmit_ISR 3048  
                                        l3205 2DF8                                          l3213 3120  
                                        l1438 26A6                                          l3215 3122  
                                        l1448 2A3C                                          l3209 2E0E  
                                        l3233 2620                                          l3235 2634  
                                        l1707 2B2A                                          l3315 226A  
                                        l3181 2FA0                                          l3341 23C0  
                                        l3245 2690                                          l3261 2A26  
                                        l3253 29CA                                          l3325 2352  
                                        l1717 222C                                          l3413 20C6  
                                        l3183 2FA2                                          l3167 2F6C  
                                        l3351 2416                                          l3255 29DE  
                                        l1719 2234                                          l3431 21C0  
                                        l3407 20A6                                          l3193 2914  
                                        l3361 2482                                          l3353 241A  
                                        l3345 23C2                                          l3273 2B22  
                                        l3425 2188                                          l3409 20BE  
                                        l3441 21DE                                          l3603 27EC  
                                        l3355 2448                                          l3283 2B72  
                                        l3275 2B34                                          l3435 21CC  
                                        l3349 240E                                          l3269 2B14  
                                        l3199 29A8                                          l3279 2B4A  
                                        l1769 24D6                                          l3299 2EA2  
                                        l3651 252C                                          l3661 2566  
                                        ?_pad 0027                                          l3583 2CA4  
                                        l3671 25A6                                          l3663 2572  
                                        l3585 2CBE                                          l3673 25B2  
                                        l3657 254C                                          l3667 258C  
                                        STR_1 2006                                          _LATA 003FBA  
                                        _LATB 003FBB                                          _LATC 003FBC  
                                        _LATD 003FBD                                          _LATE 003FBE  
                                        u1610 2954                                          _LATF 003FBF  
                                        u1800 2222                                          u1641 2600  
                                        u1660 2638                                          u1590 290C  
                                        u1750 3040                                          u1830 237C  
                                        u1831 237A                                          u1760 3042  
                                        u1840 238A                                          u1690 29E2  
                                        u1850 238E                                          u1930 2100  
                                        u1780 2E9E                                          u1880 24B4  
                                        _T6PR 003F93                                          _PMD0 0039C0  
                                        u1965 2D5A                                          _PMD1 0039C1  
                                        u1966 2D5C                                          _PMD2 0039C2  
                                        _PMD3 0039C3                                          _PMD4 0039C4  
                                        _PMD5 0039C5                                          _PMD6 0039C6  
                                        _PMD7 0039C7                                          _PLLR 01CEE0  
                                        _WPUA 003A41                                          _WPUB 003A51  
                                        _WPUC 003A61                                          _WPUD 003A71  
                                        _WPUE 003A81                                          _WPUF 003A91  
                            __end_of_ADCC_ISR 2DEE                           ?_UART1_Transmit_ISR 0001  
                                        _dbuf 008A                                          _atoi 23AE  
                                        _main 24E0                               __end_of_Adc_Isr 3018  
                                        _prec 003E                                          _nout 0084  
                                        pad@i 002C                                          pad@p 0029  
                                        fsr1h 003FE2                                          fsr2h 003FDA  
                                        indf2 003FDF                                          fsr1l 003FE1  
                                        pad@w 002E                                          fsr2l 003FD9  
                                        _puts 2FA6                                          _utoa 2210  
                                        prodh 003FF4                                          prodl 003FF3  
                                        start 00AE                               _timer5ReloadVal 0086  
               ??_UART1_SetTxInterruptHandler 0018                             _UART1_rx_vect_isr 2F2C  
                                ___param_bank 000000                            ?_UART1_rx_vect_isr 0001  
                                       ??_pad 002B                          ??_UART1_Transmit_ISR 000B  
               __end_of_OSCILLATOR_Initialize 31DC                                         _ADACT 003EFE  
                                       _ADCAP 003EF5                                         ?_atoi 001C  
                                       ?_main 0001                                         _ADCLK 003EFF  
                                       _ADCNT 003EEB                                         _ADPCH 003EF1  
                                       _ADREF 003EFD                                         _ADRPT 003EEC  
                                       ?_puts 0027                                         ?_utoa 00AA  
                             __end_of___lodiv 26C8                                         _U1P1H 003DED  
                                       _U1P2H 003DEF                                         _U1P3H 003DF1  
                                       _U1P1L 003DEC                                         _U1P2L 003DEE  
                                       _U1P3L 003DF0                                         _T5CLK 003F9D  
                             __end_of___lomod 2A5E                                         _T5CON 003F9A  
                                       _T6CON 003F94                                         _T6HLT 003F95  
                                       _U1UIR 003DF8                                         _U1RXB 003DE8  
                                       _U1TXB 003DEA                        __end_of_DAC1_SetOutput 329C  
                                       _T6TMR 003F92                                         i2l454 2EDC  
                                       i2l640 3070                                         i2l721 310C  
                                       _T6RST 003F97                           ??_UART1_rx_vect_isr 000D  
                                       _OSCEN 0039DD                                  vfpfcnvrt@fmt 00C2  
                                vfpfcnvrt@llu 00C8                                         _TMR5H 003F99  
                                       _TMR5L 003F98                                         _TRISA 003FC2  
                                       _TRISB 003FC3                                         _TRISC 003FC4  
                                       _TRISD 003FC5                                         _TRISE 003FC6  
                                       _TRISF 003FC7                                   _Default_ISR 32A8  
                   ?_TMR6_SetInterruptHandler 0015                             _UART1_tx_vect_isr 2EEC  
                            __end_of_TMR5_ISR 2C4A                              __end_of_TMR6_ISR 2EEA  
                                       _buff1 0200                                         _flags 0040  
                                       _fputc 28FC                                         _fputs 2DEE  
                             __end_of_isdigit 3048                            ?_UART1_tx_vect_isr 0001  
                                       atoi@n 0024                                         pad@fp 0027  
                                       atoi@s 001C                                         _width 003C  
                                       _putch 3288                               __end_of_isspace 2EAA  
                                       pclath 003FFA                                         pclatu 003FFB  
                                       tablat 003FF5                                         puts@s 0027  
                                       utoa@d 00AB                                         utoa@i 00BF  
                                       utoa@n 00B7                                         utoa@p 00B3  
                                       utoa@w 00B5                                         status 003FD8  
         __end_of_UART1_SetRxInterruptHandler 3228                   _UART1_SetRxInterruptHandler 321A  
                             __end_of_sprintf 2E6C                              ___lodiv@dividend 0015  
    __end_of_UART1_DefaultFramingErrorHandler 32AE            ??_UART1_DefaultFramingErrorHandler 000D  
           ?_UART1_DefaultFramingErrorHandler 0001              _UART1_DefaultFramingErrorHandler 32AC  
                         ??_UART1_tx_vect_isr 000B                     __end_of_UART1_rx_vect_isr 2F6A  
              ??_TMR6_DefaultInterruptHandler 0008                               _TMR5_Initialize 2C4A  
                             __initialization 2D6A                                  __end_of_atoi 24E0  
                                __end_of_main 25FA                       __end_of_DAC1_Initialize 3288  
                                __end_of_puts 2FE0                                  __end_of_utoa 23AE  
                 ??_UART1_DefaultErrorHandler 000D                                  ?_UART1_Write 0001  
                                      ??_atoi 001E                                        ??_main 0038  
                    _TMR5_SetInterruptHandler 3260                                        ??_puts 0029  
                                      ??_utoa 0030                                 __activetblptr 000003  
                             ?_DAC1_SetOutput 0001                     __end_of_UART1_tx_vect_isr 2F2A  
                            ___lodiv@quotient 0025                               _TMR6_Initialize 3076  
                            _UART1_Initialize 2846                                        _ADACCH 003EE9  
                                      _ADACCL 003EE8                                        _ADACCU 003EEA  
                                      _ADACQH 003EF4                                        _ADACQL 003EF3  
                                      _ADCON0 003EF8                                        _ADCON1 003EF9  
                                      _ADCON2 003EFA                                        _ADCON3 003EFB  
                                      _ADERRH 003EE3                                        _ADERRL 003EE2  
                                   ??_Adc_Isr 0005                                        ?_fputc 0017  
                                      _ADLTHH 003EDF                                        _ADLTHL 003EDE  
                                      ?_fputs 0020                                        _ADRESH 003EF0  
                                      _ADRESL 003EEF                                        _ADPREH 003EF7  
                                      _ADPREL 003EF6                                        _ADSTAT 003EFC  
                                      _ADUTHH 003EE1                                        _ADUTHL 003EE0  
                                      _ANSELA 003A40                                        ?_putch 0001  
                                      _ANSELB 003A50                                        _ANSELC 003A60  
                                      _ANSELD 003A70                                        _ANSELE 003A80  
                                      _ANSELF 003A90                                        _RB1I2C 003A5A  
                                      _RB2I2C 003A5B                                        _RD0I2C 003A7A  
                                      _U1CON0 003DF2                                        _U1CON1 003DF3  
                                      _U1CON2 003DF4                                        _RD1I2C 003A7B  
                                      _RC3I2C 003A6A                                        _RC4I2C 003A6B  
                                      _U1BRGH 003DF6                                        _U1FIFO 003DF7  
                                      _U1BRGL 003DF5                                        _T5GATE 003F9C  
                                      _T5GCON 003F9B                                        _RC3PPS 003A13  
                                      _RC5PPS 003A15                                        _ODCONA 003A42  
                                      _ODCONB 003A52                                        _RC6PPS 003A16  
                                      _ODCONC 003A62                                        _ODCOND 003A72  
                                      _ODCONE 003A82                                        _ODCONF 003A92  
                                      i2l3031 2D0E                                        i2l3027 2CE8  
                                      i2l2717 319E                                        _INLVLA 003A44  
                                      _INLVLB 003A54                                        i2l2955 306C  
                                      _INLVLC 003A64                                        _INLVLD 003A74  
                                      _INLVLE 003A84                                        _INLVLF 003A94  
                                      i2l2975 2AFA                                        i2l2987 300C  
                                      _OSCFRQ 0039DF                         _UART1_SetErrorHandler 3244  
                  ??_ADCC_GetConversionResult 0003                       DAC1_SetOutput@inputData 0015  
                                vfprintf@cfmt 00D3                                        ___wmul 30A2  
                                   ??___lodiv 0025                                     ??___lomod 0025  
                                      clear_0 2D70                                        clear_1 2D7C  
                                      clear_2 2D88                                        clear_3 2D94  
                                  _Timers_Isr 2CE0                                        isa$std 000001  
                                      pad@buf 0028                                     ?_ADCC_ISR 0001  
                                      _strlen 311A                               _ADCC_Initialize 2B88  
                                      fputc@c 0017                                _PMD_Initialize 313C  
                                      fputs@c 0024                                        fputs@i 0025  
                                      fputs@s 0020                                     ??_isdigit 0017  
                                __mediumconst 0000                                     ??_isspace 0017  
                                      tblptrh 003FF7                                        tblptrl 003FF6  
                                      tblptru 003FF8                              __end_of_vfprintf 2CE0  
                                      utoa@fp 00AA      TMR5_SetInterruptHandler@InterruptHandler 0015  
 UART1_SetTxInterruptHandler@InterruptHandler 0015   UART1_SetRxInterruptHandler@InterruptHandler 0015  
    TMR6_SetInterruptHandler@InterruptHandler 0015   ADCC_SetADIInterruptHandler@InterruptHandler 0015  
        __end_of_UART1_SetOverrunErrorHandler 3236                  _UART1_SetOverrunErrorHandler 3228  
                   _UART1_DefaultErrorHandler 329C                                     ??_sprintf 0038  
                     __end_of_TMR5_Initialize 2C96                             _SYSTEM_Initialize 30CC  
                                  __accesstop 0060                       __end_of__initialization 2DA6  
                          ?_SYSTEM_Initialize 0001                                 ___rparam_used 000001  
                             _TMR5_WriteTimer 30F6                             __end_of_Led_Blink 31C0  
                              __pcstackCOMRAM 0001                           ??_SYSTEM_Initialize 001A  
                            ?_DAC1_Initialize 0001                                     ?_TMR5_ISR 0001  
                                   ?_TMR6_ISR 0001                                ivt0x8_undefint 00AC  
                               __end_of_fputc 29B0                                 __end_of_fputs 2E2E  
                           ??_SPI1_Initialize 0015                                 __end_of_putch 3292  
                     __end_of_TMR6_Initialize 30A2                        __end_of_PMD_Initialize 315E  
                                  ??_ADCC_ISR 0006                         __end_of_TMR6_CallBack 3180  
                          _spi1_configuration 2001                         TMR6_ISR@CountCallBack 0088  
                   _UART1_FramingErrorHandler 0075                                       ??_fputc 001B  
                   __end_of_SYSTEM_Initialize 30F6                                       ??_fputs 0024  
                                     ??_putch 0016                                    __pbssBANK0 0060  
                                  __pbssBANK1 0100                                    __pbssBANK2 0200  
               ?_UART1_SetOverrunErrorHandler 0015                        ?_UART1_SetErrorHandler 0015  
                                     IVTBASEH 003FD6                                       IVTBASEL 003FD5  
                                     IVTBASEU 003FD7                                       ?___wmul 0015  
            __end_of_TMR6_SetInterruptHandler 3260                       __end_of_ADCC_Initialize 2BFA  
                                  ??_TMR5_ISR 0013                                    ??_TMR6_ISR 0009  
                                     _ADFLTRH 003EE7                                       _ADFLTRL 003EE6  
                                     _ADPREVH 003EEE                                       _ADPREVL 003EED  
                                 ?_Timers_Isr 0001                                       _ADSTPTH 003EE5  
                                     _ADSTPTL 003EE4                               ?_PMD_Initialize 0001  
                           _UART1_Receive_ISR 2A5E                                       ?_strlen 0015  
                                     _U1ERRIE 003DFA                                       _U1ERRIR 003DF9  
                                ?_Default_ISR 0001                            ?_UART1_Receive_ISR 0001  
                                     _U1RXPPS 003AE5                                       _OSCCON1 0039D9  
                                     _OSCCON3 0039DB                                       _IVTLOCK 003FD4  
                                     _SPI1CLK 003D1C                                       _SPI1RXB 003D10  
                                     _SPI1TXB 003D11                                       _OSCTUNE 0039DE  
                                     _SLRCONA 003A43                                       _SLRCONB 003A53  
                                     _SLRCONC 003A63                                       _SLRCOND 003A73  
                                     _SLRCONE 003A83                                       _SLRCONF 003A93  
                                     _Adc_Isr 2FE0                           ??_UART1_Receive_ISR 000D  
                            ___lomod@dividend 0015                       __end_of_TMR5_WriteTimer 311A  
                            ?_TMR5_Initialize 0001                     INTERRUPT_Initialize@state 0015  
                                     __Hparam 0000                                       __Lparam 0000  
                    __end_of_UART1_Initialize 28FC                    ??_TMR5_SetInterruptHandler 0018  
                                     ___lodiv 25FA                                       ___lomod 29B0  
                            ??_DAC1_SetOutput 0015                     __end_of_UART1_Receive_ISR 2B00  
                                   ?_vfprintf 00D0                                  __psmallconst 2000  
                                     __pcinit 2D6A                              ?_TMR6_Initialize 0001  
                                     __ramtop 2000                                       __ptext0 24E0  
                                     __ptext1 2E2E                                       __ptext2 2C96  
                                     __ptext3 201A                                       __ptext4 2210  
                                     __ptext5 2B00                                       __ptext6 311A  
                                     __ptext7 29B0                                       __ptext8 25FA  
                                     __ptext9 23AE                         _OSCILLATOR_Initialize 31C0  
                                     _isdigit 3018                      ??_PIN_MANAGER_Initialize 0015  
                                     _isspace 2E6C                                   Timers_Isr@i 0011  
                                   _T5CONbits 003F9A                                       atoi@neg 0022  
                                     _sprintf 2E2E                          end_of_initialization 2DA6  
                                     fputc@fp 0019           __end_of_UART1_SetTxInterruptHandler 321A  
                 _UART1_SetTxInterruptHandler 320C                                       fputs@fp 0022  
                              display_led@led 0017                ??_UART1_SetOverrunErrorHandler 0018  
                           __end_of_vfpfcnvrt 2210                                     _SPI1TCNTL 003D12  
                                     postdec2 003FDD                                       postinc0 003FEE  
                                     postinc1 003FE6                                       postinc2 003FDE  
                            ?_ADCC_Initialize 0001                                    ??_vfprintf 0038  
                           UART1_Write@txData 0015                           _UART1_RxDataHandler 3180  
                                     strlen@a 0017                                       strlen@s 0015  
                    _TMR6_SetInterruptHandler 3252                         _TMR5_InterruptHandler 006C  
         __end_of_ADCC_SetADIInterruptHandler 327C                   _ADCC_SetADIInterruptHandler 326E  
                                   _TRISCbits 003FC4                          ?_UART1_RxDataHandler 0001  
                            ?_TMR5_WriteTimer 000F                       TMR5_WriteTimer@timerVal 000F  
               ??_ADCC_SetADIInterruptHandler 0018                               _SPI1_Initialize 31DC  
                __end_of_INTERRUPT_Initialize 2D6A                                     _Led_Blink 31A2  
                               ??_display_led 0015                ??_ADCC_DefaultInterruptHandler 0001  
                                 vfpfcnvrt@ap 00C3                                   vfpfcnvrt@fp 00C1  
                              __end_of___wmul 30CC                        ?_OSCILLATOR_Initialize 0001  
                   ?_ADCC_GetConversionResult 0001                                __end_of_strlen 313C  
                         start_initialization 2D6A                               ___lodiv@divisor 001D  
                             ___lodiv@counter 002D          __end_of_TMR5_DefaultInterruptHandler 32B0  
                _TMR5_DefaultInterruptHandler 32AE                                   __end_of_pad 2B88  
                     ??_UART1_SetErrorHandler 0018                         ??_UART1_RxDataHandler 000D  
                                 putch@txData 0016                                    ivt0x8_base 0008  
                               _uart1RxBuffer 0140                                 _uart1TxBuffer 0180  
                                 vfprintf@fmt 00D1                              ??_PMD_Initialize 0015  
                                    ??___wmul 0019                                    ?_Led_Blink 0001  
                                ??_Timers_Isr 000F                                      ??_strlen 0017  
                         __end_of_display_led 2846                                   __pbssCOMRAM 0038  
                          _UART1_ErrorHandler 006F                                 __pcstackBANK0 00AA  
                     __end_of_SPI1_Initialize 31F6                      _UART1_RxInterruptHandler 0081  
               ?_TMR5_DefaultInterruptHandler 0001                                      ?_Adc_Isr 0001  
                ?_UART1_SetRxInterruptHandler 0015                            __end_of_Timers_Isr 2D26  
                       _TMR6_InterruptHandler 0078                        _PIN_MANAGER_Initialize 26C8  
                           ?_UART1_Initialize 0001          __end_of_UART1_SetFramingErrorHandler 3244  
                _UART1_SetFramingErrorHandler 3236                                      ?___lodiv 0015  
                                    ?___lomod 0015                            ??_UART1_Initialize 0018  
                            _uart1RxLastError 0045                                 ??_UART1_Write 0015  
                                    _DAC1CON0 003E9E                                      _DAC1CON1 003E9C  
                                   _disp_tick 0044                                      _ADCC_ISR 2DAC  
                             ___lomod@divisor 001D                                   __smallconst 2000  
                             ___lomod@counter 0025      __end_of_UART1_DefaultOverrunErrorHandler 32AC  
          ??_UART1_DefaultOverrunErrorHandler 000D             ?_UART1_DefaultOverrunErrorHandler 0001  
            _UART1_DefaultOverrunErrorHandler 32AA                                      ?_isdigit 0015  
                                    ?_isspace 0015                                      ?_sprintf 00D4  
                                 _U1ERRIRbits 003DF9                          _INTERRUPT_Initialize 2D26  
                                    _T6CLKCON 003F96                                ___wmul@product 0019  
       UART1_SetErrorHandler@interruptHandler 0015                                      _LATDbits 003FBD  
                                    _LATEbits 003FBE                                      _LATFbits 003FBF  
                                    _IPR1bits 003981                                      _PIE1bits 003991  
                                    _IPR3bits 003983                                      _PIE3bits 003993  
                                   _tickCount 0060                                      _IPR8bits 003988  
                                    _IPR9bits 003989                                      _PIE8bits 003998  
                                    _PIE9bits 003999                                      _IVTBASEH 003FD6  
                                    _IVTBASEL 003FD5                                      _IVTBASEU 003FD7  
                                    i2u122_40 31AA                                      i2u122_46 31AC  
               ??_UART1_SetRxInterruptHandler 0018                                      i2u131_48 2AB8  
                                    i2u131_49 2ACE                                      i2u133_48 2AE4  
                                    i2u125_48 316C                                      i2u142_40 2ECE  
                                    i2u141_48 2DCC                                      i2u141_49 2DE0  
                                    i2u144_48 2F08                                      i2u144_49 2F1C  
                                    i2u129_48 2A88                                      i2u129_49 2A9E  
                                    i2u139_40 2D24                                      i2u146_48 2F48  
                                    i2u146_49 2F5C                                      i2u148_48 2C28  
                                    i2u148_49 2C3C                                      _PIR1bits 0039A1  
                                    _PIR2bits 0039A2                                      _SPI1BAUD 003D19  
                                   _puts$2522 0029                                      _SPI1CON0 003D14  
                                    _SPI1CON1 003D15                                      _SPI1CON2 003D16  
                                    _PIR8bits 0039A8                                      _PIR9bits 0039A9  
                  ??_TMR6_SetInterruptHandler 0018                                   ??_Led_Blink 0008  
                  __end_of_UART1_Transmit_ISR 3076                                      _TMR5_ISR 2BFC  
                                    _TMR6_ISR 2EAC                 ?_UART1_SetFramingErrorHandler 0015  
                                 _display_led 278E                                     _vfpfcnvrt 201A  
                           ___wmul@multiplier 0015                                     main@dac_v 00E7  
                               _TMR6_CallBack 315E                     ?_TMR5_SetInterruptHandler 0015  
                         __end_of_UART1_Write 2FA6                                  _isspace$2467 001B  
                            ?_SPI1_Initialize 0001                                   _INTCON0bits 003FD2  
                       ?_INTERRUPT_Initialize 0001                             ??_DAC1_Initialize 0015  
                      _uart1TxBufferRemaining 0049                ??_TMR5_DefaultInterruptHandler 000F  
                                _uart1RxCount 0046                                      __Hrparam 0000  
            __end_of_ADCC_GetConversionResult 320C                                    vfprintf@ap 00D2  
                                    __Lrparam 0000                                    vfprintf@fp 00D0  
                     ??_OSCILLATOR_Initialize 0015                                    ?_vfpfcnvrt 00C1  
                                    _adc_chan 0042                                      _adc_tick 0043  
                              ?_TMR6_CallBack 0001                                    sprintf@fmt 00D6  
                                    __pivt0x8 0008                                      __ptext10 2E6C  
                                    __ptext11 3018                                      __ptext20 2846  
                                    __ptext12 30A2                                      __ptext21 320C  
                                    __ptext13 2FA6                                      __ptext30 31DC  
                                    __ptext22 321A                                      __ptext14 2DEE  
                                    __ptext31 313C                                      __ptext23 3228  
                                    __ptext15 28FC                                      __ptext40 32A2  
                                    __ptext32 26C8                                      __ptext24 3236  
                                    __ptext16 3288                                      __ptext41 2FE0  
                                    __ptext33 31C0                                      __ptext25 3244  
                                    __ptext17 2F6A                                      __ptext50 2F2C  
                                    __ptext42 31F6                                      __ptext34 2D26  
                                    __ptext26 3076                                      __ptext18 278E  
                                    __ptext51 2A5E                                      __ptext43 2EAC  
                                    __ptext35 327C                                      __ptext27 3252  
                                    __ptext19 30CC                                      __ptext60 0000  
                                    __ptext52 32AA                                      __ptext44 315E  
                                    __ptext36 2B88                                      __ptext28 2C4A  
                                    __ptext53 32AC                                      __ptext45 31A2  
                                    __ptext37 326E                                      __ptext29 3260  
                                    __ptext54 329C                                      __ptext46 32A4  
                                    __ptext38 3292                                      __ptext55 3180  
                                    __ptext47 32A8                                      __ptext39 2DAC  
                                    __ptext56 2BFC                                      __ptext48 2EEC  
                                    __ptext57 32AE                                      __ptext49 3048  
                                    __ptext58 2CE0                                      __ptext59 30F6  
               __end_of_UART1_SetErrorHandler 3252                                   _IVTLOCKbits 003FD4  
                   _UART1_OverrunErrorHandler 0072                     _ADCC_ADI_InterruptHandler 007B  
UART1_SetOverrunErrorHandler@interruptHandler 0015                                      isa$xinst 000000  
                  ?_UART1_DefaultErrorHandler 0001                                      _vfprintf 2C96  
                                 _UART1_Write 2F6A                             ??_TMR5_Initialize 0018  
                               ??_Default_ISR 000B                ??_UART1_SetFramingErrorHandler 0018  
                 __end_of_UART1_RxDataHandler 31A2                                   _uart1RxHead 0048  
                                 _uart1TxHead 004B                                   _uart1RxTail 0047  
                                 _uart1TxTail 004A                                      isdigit@c 0015  
                      ??_INTERRUPT_Initialize 0015          __end_of_TMR6_DefaultInterruptHandler 32A6  
                _TMR6_DefaultInterruptHandler 32A4          __end_of_ADCC_DefaultInterruptHandler 32A4  
                _ADCC_DefaultInterruptHandler 32A2                                      intlevel2 0000  
                                   sprintf@ap 00DB                                      isspace@c 0015  
                     ?_PIN_MANAGER_Initialize 0001                             ??_TMR6_Initialize 0018  
                         _uart1RxStatusBuffer 0100                                    _SPI1SDIPPS 003ADF  
                                  _SPI1SCKPPS 003ADE  UART1_SetFramingErrorHandler@interruptHandler 0015  
                    _ADCC_GetConversionResult 31F6             __end_of_UART1_DefaultErrorHandler 32A2  
                                 ??_vfpfcnvrt 00C4                               ??_TMR6_CallBack 0009  
                                    sprintf@f 00DC                                      sprintf@s 00D4  
                    _UART1_TxInterruptHandler 007E                           __end_of_Default_ISR 32AA  
              __end_of_PIN_MANAGER_Initialize 278E                             ??_ADCC_Initialize 0018  
               ?_TMR6_DefaultInterruptHandler 0001                 ?_ADCC_DefaultInterruptHandler 0001  
                ?_UART1_SetTxInterruptHandler 0015                    __end_of_spi1_configuration 2006  
